((iutils2
Vocab
p0
(dp1
S'actions_dict'
p2
(dp3
S'RIGHT-ARC:xcomp'
p4
I80
sS'RIGHT-ARC:prep'
p5
I67
sS'RIGHT-ARC:cc'
p6
I48
sS'RIGHT-ARC:csubj'
p7
I55
sS'LEFT-ARC:rcmod'
p8
I25
sS'RIGHT-ARC:poss'
p9
I78
sS'RIGHT-ARC:rcmod'
p10
I71
sS'RIGHT-ARC:punct'
p11
I73
sS'LEFT-ARC:nsubj'
p12
I23
sS'LEFT-ARC:iobj'
p13
I42
sS'RIGHT-ARC:prt'
p14
I52
sS'LEFT-ARC:prep'
p15
I21
sS'RIGHT-ARC:nsubjpass'
p16
I54
sS'LEFT-ARC:mark'
p17
I15
sS'LEFT-ARC:predet'
p18
I44
sS'LEFT-ARC:advmod'
p19
I26
sS'LEFT-ARC:npadvmod'
p20
I33
sS'RIGHT-ARC:predet'
p21
I90
sS'RIGHT-ARC:acomp'
p22
I76
sS'LEFT-ARC:pcomp'
p23
I31
sS'RIGHT-ARC:det'
p24
I85
sS'RIGHT-ARC:dep'
p25
I83
sS'LEFT-ARC:nsubjpass'
p26
I8
sS'LEFT-ARC:ccomp'
p27
I4
sS'RIGHT-ARC:expl'
p28
I89
sS'RIGHT-ARC:advmod'
p29
I72
sS'LEFT-ARC:tmod'
p30
I29
sS'RIGHT-ARC:conj'
p31
I56
sS'RIGHT-ARC:mwe'
p32
I64
sS'RIGHT-ARC:amod'
p33
I86
sS'LEFT-ARC:amod'
p34
I40
sS'LEFT-ARC:mwe'
p35
I18
sS'RIGHT-ARC:cop'
p36
I81
sS'LEFT-ARC:cc'
p37
I2
sS'LEFT-ARC:quantmod'
p38
I28
sS'LEFT-ARC:prt'
p39
I6
sS'LEFT-ARC:aux'
p40
I20
sS'RIGHT-ARC:tmod'
p41
I75
sS'RIGHT-ARC:quantmod'
p42
I74
sS'LEFT-ARC:infmod'
p43
I17
sS'LEFT-ARC:poss'
p44
I32
sS'LEFT-ARC:conj'
p45
I10
sS'RIGHT-ARC:infmod'
p46
I63
sS'LEFT-ARC:pobj'
p47
I41
sS'RIGHT-ARC:ccomp'
p48
I50
sS'LEFT-ARC:advcl'
p49
I19
sS'RIGHT-ARC:nn'
p50
I58
sS'RIGHT-ARC:number'
p51
I49
sS'RIGHT-ARC:possessive'
p52
I51
sS'LEFT-ARC:csubj'
p53
I9
sS'RIGHT-ARC:neg'
p54
I59
sS'LEFT-ARC:appos'
p55
I38
sS'RIGHT-ARC:preconj'
p56
I91
sS'LEFT-ARC:auxpass'
p57
I16
sS'RIGHT-ARC:iobj'
p58
I88
sS'RIGHT-ARC:mark'
p59
I61
sS'LEFT-ARC:expl'
p60
I43
sS'LEFT-ARC:number'
p61
I3
sS'LEFT-ARC:possessive'
p62
I5
sS'RIGHT-ARC:pcomp'
p63
I77
sS'LEFT-ARC:parataxis'
p64
I22
sS'LEFT-ARC:acomp'
p65
I30
sS'RIGHT-ARC:parataxis'
p66
I68
sS'RIGHT-ARC:partmod'
p67
I82
sS'RIGHT-ARC:discourse'
p68
I60
sS'RIGHT-ARC:dobj'
p69
I57
sS'LEFT-ARC:dep'
p70
I37
sS'LEFT-ARC:det'
p71
I39
sS'RIGHT-ARC:num'
p72
I53
sS'LEFT-ARC:root'
p73
I46
sS'LEFT-ARC:cop'
p74
I35
sS'RIGHT-ARC:auxpass'
p75
I62
sS'LEFT-ARC:xcomp'
p76
I34
sS'LEFT-ARC:discourse'
p77
I14
sS'LEFT-ARC:rroot'
p78
I1
sS'SHIFT'
p79
I0
sS'LEFT-ARC:<null>'
p80
I24
sS'RIGHT-ARC:appos'
p81
I84
sS'RIGHT-ARC:npadvmod'
p82
I79
sS'RIGHT-ARC:pobj'
p83
I87
sS'LEFT-ARC:partmod'
p84
I36
sS'RIGHT-ARC:advcl'
p85
I65
sS'RIGHT-ARC:nsubj'
p86
I69
sS'LEFT-ARC:punct'
p87
I27
sS'LEFT-ARC:nn'
p88
I12
sS'RIGHT-ARC:root'
p89
I92
sS'LEFT-ARC:num'
p90
I7
sS'LEFT-ARC:dobj'
p91
I11
sS'RIGHT-ARC:rroot'
p92
I47
sS'RIGHT-ARC:aux'
p93
I66
sS'LEFT-ARC:neg'
p94
I13
sS'RIGHT-ARC:<null>'
p95
I70
sS'LEFT-ARC:preconj'
p96
I45
ssS'word_dict'
p97
(dp98
S'limited'
p99
I3629
sS'consolidated'
p100
I1158
sS'magnetic'
p101
I1159
sS'Hunt'
p102
I1718
sS'self-incrimination'
p103
I1162
sS'four'
p104
I3
sS'facilities'
p105
I3631
sS'protest'
p106
I2379
sS'Does'
p107
I4
sS'controversial'
p108
I1164
sS'aides'
p109
I2380
sS'consists'
p110
I2381
sS'Communist'
p111
I3632
sS'oldest'
p112
I1165
sS'Until'
p113
I5
sS'consider'
p114
I576
sS'relationships'
p115
I1166
sS'whose'
p116
I2382
sS'votes'
p117
I1167
sS'public-relations'
p118
I3634
sS'violate'
p119
I3635
sS'eligible'
p120
I7
sS'electricity'
p121
I8
sS'Honda'
p122
I2383
sS'Oka'
p123
I3636
sS'investigation'
p124
I394
sS'Western'
p125
I9
sS'under'
p126
I3637
sS'buyer'
p127
I2241
sS'herbicide'
p128
I10
sS'pride'
p129
I3638
sS'worth'
p130
I1169
sS'founding'
p131
I4373
sS'placed'
p132
I1132
sS'pact'
p133
I1956
sS'legislators'
p134
I3639
sS'Pilgrim'
p135
I2440
sS'propane'
p136
I11
sS'Industry'
p137
I3641
sS'1,111'
p138
I77
sS'costume'
p139
I2148
sS'homes'
p140
I3527
sS'stolen'
p141
I4423
sS'every'
p142
I3643
sS'Pressed'
p143
I2385
sS'reforms'
p144
I2386
sS'affect'
p145
I2387
sS'GM'
p146
I3644
sS'sleek'
p147
I2388
sS'bringing'
p148
I14
sS'trailer'
p149
I1851
sS'vast'
p150
I2389
sS'Continental'
p151
I3630
sS'disturb'
p152
I15
sS'Maxwell'
p153
I16
sS'investigator'
p154
I1171
sS'crops'
p155
I2391
sS'cause'
p156
I2173
sS'companies'
p157
I2392
sS'solution'
p158
I2393
sS'viable'
p159
I1575
sS'samurai'
p160
I1172
sS'Nasdaq'
p161
I17
sS'specialties'
p162
I18
sS'announced'
p163
I1173
sS'cholesterol'
p164
I2395
sS'tours'
p165
I578
sS'Paul'
p166
I19
sS'Hess'
p167
I1174
sS'heading'
p168
I2396
sS'Europeans'
p169
I3646
sS'non-violent'
p170
I20
sS'Pinkerton'
p171
I21
sS'charter'
p172
I22
sS'expanded'
p173
I761
sS'force'
p174
I2397
sS'restated'
p175
I579
sS'guidelines'
p176
I3649
sS'estimates'
p177
I3650
sS'direct'
p178
I3651
sS'anti-smoking'
p179
I1847
sS'chef'
p180
I1175
sS'elegant'
p181
I24
sS'second'
p182
I25
sS'street'
p183
I3652
sS'Gideon'
p184
I3653
sS'Collins'
p185
I1176
sS'sterile'
p186
I26
sS'machines'
p187
I1177
sS'Saint-Saens'
p188
I3654
sS'even'
p189
I2399
sS'established'
p190
I1178
sS'Counterpoint'
p191
I27
sS'errors'
p192
I28
sS'previously'
p193
I2342
sS'postpone'
p194
I1170
sS'defenses'
p195
I1577
sS'contributed'
p196
I29
sS'fingers'
p197
I30
sS'poison'
p198
I2537
sS'spokesman'
p199
I2402
sS'hostile'
p200
I2177
sS'above'
p201
I2545
sS'conduct'
p202
I3658
sS'new'
p203
I2404
sS'net'
p204
I162
sS'increasing'
p205
I31
sS'officially'
p206
I1179
sS'consisting'
p207
I1180
sS'seeks'
p208
I3659
sS'shocks'
p209
I32
sS'specialist'
p210
I33
sS'Brown'
p211
I1762
sS'3/8'
p212
I2149
sS'men'
p213
I179
sS'disposable'
p214
I2407
sS'Budget'
p215
I35
sS'here'
p216
I36
sS'hundreds'
p217
I3660
sS'conglomerate'
p218
I1183
sS'reported'
p219
I37
sS'protection'
p220
I1184
sS'studio'
p221
I3661
sS'active'
p222
I2412
sS'100'
p223
I2413
sS'101'
p224
I2414
sS'obtained'
p225
I1185
sS'1985'
p226
I3596
sS'balance'
p227
I2590
sS'Merrill'
p228
I2583
sS'ventures'
p229
I2587
sS'items'
p230
I1186
sS'employees'
p231
I1187
sS'climbed'
p232
I39
sS'regulators'
p233
I981
sS'reports'
p234
I40
sS'ignoring'
p235
I2415
sS'credit'
p236
I2416
sS'Stelco'
p237
I41
sS'Wellington'
p238
I2281
sS'neurologist'
p239
I42
sS'military'
p240
I43
sS'settled'
p241
I2611
sS'issuers'
p242
I3668
sS'criticism'
p243
I44
sS'golden'
p244
I45
sS'Petty'
p245
I3669
sS'Group'
p246
I3670
sS'home'
p247
I2330
sS'campaign'
p248
I2417
sS'owed'
p249
I765
sS'St.'
p250
I2418
sS')'
p251
I3538
sS'Relations'
p252
I2419
sS'replace'
p253
I46
sS'brought'
p254
I47
sS'Also'
p255
I2420
sS'undesirable'
p256
I2443
sS'Health'
p257
I1190
sS'Khan'
p258
I3240
sS'Basin'
p259
I48
sS'total'
p260
I1191
sS'indictment'
p261
I1381
sS'unit'
p262
I49
sS'hoping'
p263
I767
sS'contractions'
p264
I1192
sS'swings'
p265
I3672
sS'marketers'
p266
I50
sS'would'
p267
I3673
sS'carpet'
p268
I1761
sS'nine'
p269
I1805
sS'hospital'
p270
I3674
sS'Nonetheless'
p271
I205
sS'June'
p272
I3676
sS'chooses'
p273
I1194
sS'music'
p274
I51
sS'asset'
p275
I3677
sS'strike'
p276
I52
sS'survive'
p277
I2425
sS'type'
p278
I2426
sS'until'
p279
I53
sS'PaineWebber'
p280
I1195
sS'main'
p281
I2776
sS'Ark.'
p282
I3678
sS'relax'
p283
I54
sS'successful'
p284
I55
sS'brings'
p285
I56
sS'training'
p286
I401
sS'audit'
p287
I1079
sS'hurt'
p288
I57
sS'phone'
p289
I3680
sS'Datapoint'
p290
I296
sS'Stock'
p291
I771
sS'arms'
p292
I2422
sS'charged'
p293
I1684
sS'emeritus'
p294
I1197
sS'90'
p295
I58
sS'hole'
p296
I59
sS'92'
p297
I60
sS'blocking'
p298
I1198
sS'circumstances'
p299
I61
sS'Salomon'
p300
I13
sS'1990'
p301
I1200
sS'1993'
p302
I1201
sS'1992'
p303
I1202
sS'join'
p304
I3684
sS'1994'
p305
I1203
sS'1997'
p306
I2710
sS'rights'
p307
I2431
sS'pursue'
p308
I62
sS'Exchequer'
p309
I1979
sS'work'
p310
I1204
sS'gasoline'
p311
I2433
sS'Most'
p312
I1948
sS'movies'
p313
I2434
sS'itself'
p314
I3243
sS'era'
p315
I1205
sS'install'
p316
I3685
sS'leaped'
p317
I322
sS'guise'
p318
I323
sS'experts'
p319
I3827
sS'2.3'
p320
I2206
sS'revenues'
p321
I64
sS'my'
p322
I3686
sS'example'
p323
I65
sS'male-fertile'
p324
I3687
sS'phrase'
p325
I1525
sS'Owen'
p326
I2178
sS'receivables'
p327
I34
sS'La'
p328
I67
sS'cited'
p329
I1207
sS'in'
p330
I2595
sS'laughs'
p331
I2437
sS'November'
p332
I3604
sS'honey'
p333
I348
sS'indicates'
p334
I1208
sS'woman'
p335
I4249
sS'caution'
p336
I2669
sS'Holding'
p337
I357
sS'Digital'
p338
I2748
sS'story'
p339
I4331
sS'attract'
p340
I3690
sS'totaled'
p341
I1209
sS'risk'
p342
I3640
sS'male-sterile'
p343
I3691
sS'end'
p344
I3692
sS'recovery'
p345
I1210
sS'knows'
p346
I1449
sS'carriers'
p347
I1211
sS'provide'
p348
I1212
sS'Journal'
p349
I1213
sS'customers'
p350
I4470
sS'damage'
p351
I69
sS'machine'
p352
I70
sS'how'
p353
I71
sS'hot'
p354
I72
sS'Jack'
p355
I2441
sS'accusations'
p356
I3122
sS'interview'
p357
I1214
sS'gate'
p358
I3694
sS'ordinary'
p359
I1215
sS'Co.'
p360
I4434
sS'beach'
p361
I1216
sS'77.3'
p362
I75
sS'Zealand'
p363
I1217
sS'badly'
p364
I3696
sS'regional'
p365
I12
sS'minority'
p366
I2444
sS'L.'
p367
I78
sS'after'
p368
I1218
sS'lab'
p369
I1219
sS'Ocean'
p370
I1220
sS'Will'
p371
I1221
sS'wrong'
p372
I79
sS'mph'
p373
I1766
sS'Yorker'
p374
I3698
sS'Hungary'
p375
I1585
sS'president'
p376
I2446
sS'law'
p377
I1222
sS'Ebensburg'
p378
I2447
sS'purchase'
p379
I2448
sS'All'
p380
I2449
sS'attempt'
p381
I2450
sS'7/8'
p382
I3699
sS'effective'
p383
I80
sS'Civil'
p384
I2452
sS'wins'
p385
I81
sS'acknowledged'
p386
I3701
sS'Tiant'
p387
I82
sS'Telerate'
p388
I2454
sS'think'
p389
I2800
sS'cigarettes'
p390
I83
sS'Salinas'
p391
I3703
sS'maintain'
p392
I2455
sS'chemical'
p393
I2750
sS'Another'
p394
I84
sS'Rouge'
p395
I2840
sS'uninsured'
p396
I2456
sS'Fannie'
p397
I1223
sS'order'
p398
I1224
sS'wind'
p399
I85
sS'operations'
p400
I2458
sS'Brazil'
p401
I405
sS'office'
p402
I1225
sS'Agnelli'
p403
I2459
sS'Blackstone'
p404
I86
sS'fall'
p405
I3016
sS'vary'
p406
I87
sS'satisfied'
p407
I1226
sS'parts'
p408
I2295
sS'6.7'
p409
I1227
sS'6.6'
p410
I1228
sS'6.5'
p411
I1229
sS'Ontario'
p412
I406
sS'6.3'
p413
I1231
sS'Inner'
p414
I1232
sS'12.5'
p415
I1233
sS'innovative'
p416
I1234
sS'Canadian'
p417
I2076
sS'before'
p418
I2460
sS'His'
p419
I90
sS'fit'
p420
I91
sS'somewhere'
p421
I1235
sS'PRI'
p422
I2463
sS'50,000'
p423
I1236
sS'Here'
p424
I3708
sS'better'
p425
I481
sS'production'
p426
I1237
sS'16.3'
p427
I3709
sS'400'
p428
I3710
sS'Judge'
p429
I1238
sS'weeks'
p430
I2467
sS'easier'
p431
I92
sS'overcome'
p432
I2468
sS'inventory'
p433
I3831
sS'then'
p434
I1239
sS'them'
p435
I1240
sS'S&Ls'
p436
I2469
sS'spray'
p437
I1938
sS'weakness'
p438
I2470
sS'slate'
p439
I93
sS'safe'
p440
I3250
sS'Thomas'
p441
I2390
sS'break'
p442
I1241
sS'educating'
p443
I94
sS'therapy'
p444
I2472
sS'reaches'
p445
I3444
sS'they'
p446
I1242
sS'one'
p447
I408
sS'slats'
p448
I96
sS'bank'
p449
I1243
sS'Control'
p450
I1244
sS'represents'
p451
I97
sS'30-year'
p452
I3713
sS'pollution-control'
p453
I2473
sS'Gary'
p454
I3425
sS'Indeed'
p455
I2474
sS'India'
p456
I524
sS'Four'
p457
I3714
sS'Milan'
p458
I2475
sS'Planning'
p459
I2476
sS'Tacker'
p460
I2477
sS'each'
p461
I3717
sS'went'
p462
I2480
sS'7.90'
p463
I1246
sS'7.91'
p464
I1247
sS'Transport'
p465
I3718
sS'mean'
p466
I536
sS'lifted'
p467
I1248
sS'financial'
p468
I99
sS'directly'
p469
I1592
sS'independent'
p470
I1383
sS'series'
p471
I100
sS'crimes'
p472
I1249
sS'Eastern'
p473
I996
sS'Aside'
p474
I1250
sS'Stelzer'
p475
I1251
sS'marital'
p476
I2484
sS'vote'
p477
I410
sS'used'
p478
I1971
sS'trading'
p479
I2485
sS'combining'
p480
I3723
sS'substantially'
p481
I101
sS'laboratory'
p482
I102
sS'dawn'
p483
I2487
sS'sounds'
p484
I2808
sS'contend'
p485
I2488
sS'Hahn'
p486
I103
sS'20.125'
p487
I104
sS'network'
p488
I1252
sS'driving'
p489
I3724
sS'display'
p490
I2361
sS'Chancellor'
p491
I3725
sS'waive'
p492
I105
sS'crucial'
p493
I2489
sS'monitor'
p494
I2771
sS'vessels'
p495
I1253
sS'content'
p496
I2490
sS'Transmission'
p497
I1973
sS'encourage'
p498
I106
sS'unrelated'
p499
I2394
sS'Capel'
p500
I992
sS'human-rights'
p501
I2604
sS'surprise'
p502
I2491
sS'newly'
p503
I3727
sS'size'
p504
I1595
sS'sluggish'
p505
I2492
sS'Chivas'
p506
I107
sS'housing'
p507
I1118
sS'disputed'
p508
I1254
sS'written'
p509
I2256
sS'veto'
p510
I1255
sS'University'
p511
I108
sS'given'
p512
I4031
sS'free'
p513
I3728
sS'standard'
p514
I1256
sS'admits'
p515
I1257
sS'disputes'
p516
I1258
sS'streamline'
p517
I3729
sS'time-limited'
p518
I3730
sS'boosting'
p519
I3731
sS'Minpeco'
p520
I2495
sS'estimate'
p521
I110
sS'Lecheria'
p522
I2496
sS'Frankfurt'
p523
I111
sS'1.8415'
p524
I2497
sS'Nixon'
p525
I2498
sS'delight'
p526
I2605
sS'enormous'
p527
I112
sS'won'
p528
I1933
sS'Monday'
p529
I413
sS'created'
p530
I1259
sS'September'
p531
I1260
sS'National'
p532
I1261
sS'Mingo'
p533
I113
sS'days'
p534
I3733
sS'show'
p535
I2850
sS'pence'
p536
I3734
sS'AMERICAN'
p537
I1262
sS'levels'
p538
I779
sS'oppose'
p539
I1263
sS'smokers'
p540
I3067
sS'Paris'
p541
I1023
sS'1970s'
p542
I114
sS'moving'
p543
I4449
sS'caught'
p544
I1597
sS'user'
p545
I1976
sS'enjoy'
p546
I3647
sS'U.K.'
p547
I1264
sS'Mediobanca'
p548
I1265
sS'cup'
p549
I3262
sS'features'
p550
I2501
sS'economists'
p551
I2502
sS'researcher'
p552
I3736
sS'Ackerman'
p553
I1266
sS'primary'
p554
I3737
sS'executions'
p555
I2503
sS'clear'
p556
I1909
sS'featured'
p557
I2504
sS'relations'
p558
I2190
sS'another'
p559
I1267
sS'comic'
p560
I1268
sS'ditch'
p561
I2505
sS'electronic'
p562
I1270
sS'Azoff'
p563
I1271
sS'illustrate'
p564
I1272
sS'anyone'
p565
I2811
sS'rated'
p566
I1273
sS'service'
p567
I115
sS'attach'
p568
I2191
sS'lawsuits'
p569
I116
sS'takeovers'
p570
I1274
sS'free-lance'
p571
I1598
sS'approximately'
p572
I1275
sS'heights'
p573
I3127
sS'needed'
p574
I117
sS'Devario'
p575
I3742
sS'master'
p576
I118
sS'listed'
p577
I119
sS'draft'
p578
I417
sS'Mesa'
p579
I2506
sS'bitter'
p580
I120
sS'ranging'
p581
I121
sS'Alexander'
p582
I122
sS'chanted'
p583
I1277
sS'urban'
p584
I3747
sS'190-point'
p585
I1278
sS'B'
p586
I1279
sS'luxury'
p587
I1294
sS'collapse'
p588
I123
sS'tool'
p589
I3749
sS'diversified'
p590
I1280
sS'serve'
p591
I3750
sS'took'
p592
I3751
sS'rejected'
p593
I1281
sS'kiddies'
p594
I3165
sS'western'
p595
I3753
sS'somewhat'
p596
I2507
sS'practiced'
p597
I2609
sS'Communications'
p598
I4486
sS'begins'
p599
I2508
sS'distance'
p600
I2509
sS'composer'
p601
I814
sS'Code'
p602
I124
sS'target'
p603
I3193
sS'showed'
p604
I125
sS'Coda'
p605
I126
sS'programs'
p606
I2610
sS'tree'
p607
I127
sS'likely'
p608
I2398
sS'nations'
p609
I128
sS'project'
p610
I129
sS'matter'
p611
I2511
sS'Unix'
p612
I2326
sS'classes'
p613
I3755
sS'silly'
p614
I2512
sS'Sea'
p615
I1282
sS'budget'
p616
I762
sS'Sen'
p617
I1283
sS'feeling'
p618
I130
sS'powers'
p619
I1284
sS'acquisition'
p620
I131
sS'interests'
p621
I1285
sS'Vice'
p622
I1365
sS'fashion'
p623
I3756
sS'sees'
p624
I2517
sS'steelmaker'
p625
I2518
sS'willingness'
p626
I132
sS'Chicago'
p627
I133
sS'ran'
p628
I3757
sS'HealthVest'
p629
I3758
sS'mind'
p630
I2519
sS'mine'
p631
I751
sS'500,000'
p632
I1286
sS'spent'
p633
I3251
sS'talking'
p634
I3759
sS'seed'
p635
I2521
sS'manner'
p636
I1287
sS'Instead'
p637
I1288
sS'seem'
p638
I2523
sS'Haussmann'
p639
I134
sS'seek'
p640
I2524
sS'relatively'
p641
I3761
sS'Pravda'
p642
I1289
sS'forced'
p643
I1290
sS'strength'
p644
I1291
sS'1969'
p645
I3762
sS'responsible'
p646
I136
sS'floating-rate'
p647
I137
sS'isolated'
p648
I3764
sS'thorough'
p649
I3765
sS'indexes'
p650
I1292
sS'sound'
p651
I2906
sS'subjects'
p652
I1293
sS'Minister'
p653
I138
sS'doors'
p654
I797
sS'brains'
p655
I1602
sS'pension'
p656
I1156
sS'dragged'
p657
I699
sS'Stevenson'
p658
I3452
sS'Bank'
p659
I140
sS'unsecured'
p660
I1297
sS'concedes'
p661
I141
sS'acquire'
p662
I1299
sS'transactions'
p663
I142
sS'Ogden'
p664
I3767
sS'pretty'
p665
I1916
sS'Arizona'
p666
I674
sS'Mead'
p667
I1302
sS'letter'
p668
I143
sS'8.05'
p669
I3769
sS'phase'
p670
I1303
sS'Aug.'
p671
I2321
sS'Alabama'
p672
I2527
sS'Coca-Cola'
p673
I2528
sS'Bond'
p674
I1304
sS'stock-price'
p675
I841
sS'singer'
p676
I145
sS'antitrust'
p677
I848
sS'professor'
p678
I147
sS'camp'
p679
I148
sS'flow'
p680
I3770
sS'newcomers'
p681
I1306
sS'treaty'
p682
I3322
sS'competitors'
p683
I2531
sS'points'
p684
I2532
sS'sources'
p685
I2307
sS'principle'
p686
I2533
sS'Giovanni'
p687
I593
sS'Institutes'
p688
I1309
sS'voting'
p689
I1310
sS'consumer'
p690
I2534
sS'notion'
p691
I1058
sS'came'
p692
I149
sS'reserve'
p693
I1312
sS'saying'
p694
I150
sS'reactor'
p695
I151
sS'O.'
p696
I787
sS'reductions'
p697
I3778
sS'meetings'
p698
I152
sS'labels'
p699
I3348
sS'ending'
p700
I2536
sS'showing'
p701
I1994
sS'liberty'
p702
I3657
sS'participate'
p703
I154
sS'Anne'
p704
I3356
sS'Congressional'
p705
I155
sS'European'
p706
I1313
sS'Dec.'
p707
I1314
sS'20-year'
p708
I4627
sS'just'
p709
I2618
sS'Unocal'
p710
I1073
sS'representing'
p711
I420
sS'Republicans'
p712
I1317
sS'Free'
p713
I2541
sS'interbank'
p714
I157
sS'Records'
p715
I3781
sS'theme'
p716
I158
sS'Inc.'
p717
I1604
sS'pursuing'
p718
I1319
sS'announce'
p719
I3782
sS'adequate'
p720
I1320
sS'rice'
p721
I159
sS'jailed'
p722
I2543
sS'smaller'
p723
I4538
sS'wearing'
p724
I2544
sS'plate'
p725
I160
sS'Spielvogel'
p726
I1696
sS'10'
p727
I2815
sS'de'
p728
I1322
sS'stop'
p729
I2546
sS'television'
p730
I1605
sS'preferred'
p731
I1323
sS'yielded'
p732
I1324
sS'criticized'
p733
I3785
sS'Ogilvy'
p734
I595
sS'Bognato'
p735
I2198
sS'equity-purchase'
p736
I2547
sS'altogether'
p737
I161
sS'report'
p738
I3787
sS'Organization'
p739
I2548
sS'vividly'
p740
I1325
sS'Labor'
p741
I788
sS'Soviet'
p742
I1326
sS'volatility'
p743
I963
sS'Senators'
p744
I164
sS'runs'
p745
I1327
sS'spots'
p746
I1119
sS'bar'
p747
I2550
sS'Moore'
p748
I3788
sS'Armstrong'
p749
I1328
sS'covering'
p750
I1329
sS'ever'
p751
I2405
sS'Washington'
p752
I2552
sS'twice'
p753
I3791
sS'Clinic'
p754
I1330
sS'three-year'
p755
I165
sS'rival'
p756
I422
sS'release'
p757
I166
sS'told'
p758
I1181
sS'Clearly'
p759
I167
sS'mergers'
p760
I3792
sS'Clifford'
p761
I3441
sS'respond'
p762
I168
sS'mandatory'
p763
I169
sS'District'
p764
I995
sS'Gorbachev'
p765
I1333
sS'contract-drilling'
p766
I4762
sS'observed'
p767
I1334
sS'decided'
p768
I1005
sS'projections'
p769
I1335
sS'cattle'
p770
I1336
sS'discussions'
p771
I1337
sS'John'
p772
I172
sS'half-an-hour'
p773
I2556
sS'best'
p774
I173
sS'subject'
p775
I2557
sS'sedans'
p776
I174
sS'said'
p777
I2558
sS'capacity'
p778
I3794
sS'lots'
p779
I175
sS'away'
p780
I1338
sS'141.90'
p781
I176
sS'patients'
p782
I4629
sS'unable'
p783
I1339
sS'cooperation'
p784
I1340
sS'Prices'
p785
I1341
sS'drawn'
p786
I1342
sS'Technologies'
p787
I1343
sS'tolerance'
p788
I2559
sS'yields'
p789
I811
sS'preserve'
p790
I177
sS'wage'
p791
I3260
sS'we'
p792
I1344
sS'never'
p793
I2406
sS'terms'
p794
I1345
sS'extend'
p795
I1051
sS'nature'
p796
I180
sS'wo'
p797
I1346
sS'Financial'
p798
I2707
sS'however'
p799
I3795
sS'33,000'
p800
I3510
sS'U.S.-Japan'
p801
I3848
sS'drew'
p802
I2408
sS'clues'
p803
I1347
sS'news'
p804
I3798
sS'convertible'
p805
I1348
sS'debt'
p806
I182
sS'improve'
p807
I3799
sS'suggested'
p808
I2560
sS'received'
p809
I1350
sS'essentially'
p810
I3524
sS'providing'
p811
I2202
sS'accused'
p812
I2346
sS'met'
p813
I2410
sS'resistant'
p814
I2561
sS'country'
p815
I183
sS'readers'
p816
I790
sS'pollinated'
p817
I2563
sS'tracks'
p818
I1781
sS'against'
p819
I2564
sS'players'
p820
I3804
sS'merging'
p821
I3540
sS'109'
p822
I2411
sS'planned'
p823
I184
sS'faces'
p824
I3807
sS'Leche'
p825
I185
sS'requests'
p826
I1353
sS'argue'
p827
I186
sS'Several'
p828
I942
sS'asked'
p829
I187
sS'Feb.'
p830
I1354
sS'N.M.'
p831
I2513
sS'tone'
p832
I1355
sS'1.5'
p833
I4632
sS'appeared'
p834
I2565
sS'Gas'
p835
I1402
sS'irresponsible'
p836
I188
sS'excess'
p837
I1782
sS'COMMERCIAL'
p838
I2566
sS'represented'
p839
I3662
sS'tons'
p840
I1356
sS'massive'
p841
I403
sS'initiative'
p842
I2567
sS'Board'
p843
I1357
sS'tony'
p844
I1358
sS'250'
p845
I189
sS'251'
p846
I190
sS'telecommunications'
p847
I1359
sS'insiders'
p848
I755
sS'conference'
p849
I3811
sS'strong'
p850
I1784
sS'jobless'
p851
I3582
sS'asks'
p852
I1110
sS'basis'
p853
I2570
sS'union'
p854
I1111
sS'Marcos'
p855
I192
sS'Southern'
p856
I3814
sS'three'
p857
I2571
sS'tiny'
p858
I2572
sS'.'
p859
I193
sS'Early'
p860
I2573
sS'commission'
p861
I2574
sS'beer'
p862
I3818
sS'much'
p863
I194
sS'interest'
p864
I2575
sS'basic'
p865
I2576
sS'privilege'
p866
I195
sS'parents'
p867
I791
sS'entered'
p868
I2577
sS'dozens'
p869
I1362
sS'duties'
p870
I1363
sS'threw'
p871
I2579
sS'face-to-face'
p872
I928
sS'life'
p873
I196
sS'AFL-CIO'
p874
I3820
sS'deeper'
p875
I2580
sS'Tokyo'
p876
I197
sS'Pennsylvania'
p877
I3822
sS'<null>'
p878
I1
sS'Poland'
p879
I198
sS'Jan.'
p880
I3960
sS'CD'
p881
I2581
sS'Donovan'
p882
I199
sS'lift'
p883
I200
sS'personally'
p884
I2582
sS'catch'
p885
I3823
sS'NCNB'
p886
I1650
sS'worked'
p887
I201
sS'Trans'
p888
I3824
sS'Secretary'
p889
I3825
sS'applied'
p890
I1366
sS'unpopular'
p891
I2584
sS'save'
p892
I2625
sS'Co'
p893
I2585
sS'publicly'
p894
I1367
sS'economies'
p895
I2586
sS'air'
p896
I1368
sS'employ'
p897
I202
sS'auction'
p898
I3664
sS'near'
p899
I2588
sS'Market'
p900
I764
sS'seeds'
p901
I1112
sS'aid'
p902
I1369
sS'property'
p903
I1370
sS'elaborate'
p904
I38
sS'launched'
p905
I1371
sS'pastry'
p906
I2829
sS'seven'
p907
I2592
sS'changed'
p908
I3665
sS'MCI'
p909
I1018
sS'Mitsui'
p910
I204
sS'played'
p911
I1193
sS'is'
p912
I2593
sS'FHA'
p913
I1196
sS'it'
p914
I2594
sS'holdings'
p915
I191
sS'CVN'
p916
I1373
sS'player'
p917
I206
sS'Bush'
p918
I3826
sS'tissue'
p919
I1374
sS'upscale'
p920
I207
sS'experience'
p921
I600
sS'world-wide'
p922
I1375
sS'Capital'
p923
I208
sS'exile'
p924
I1377
sS'victims'
p925
I796
sS'confident'
p926
I3817
sS'if'
p927
I2597
sS'grown'
p928
I2598
sS'confirmed'
p929
I1378
sS'bottles'
p930
I2599
sS'things'
p931
I209
sS'make'
p932
I2600
sS'leveraged'
p933
I1101
sS'amount'
p934
I1790
sS'Kremlin'
p935
I3829
sS'Ill.'
p936
I1380
sS'feuding'
p937
I210
sS'split'
p938
I211
sS'Of'
p939
I800
sS'President'
p940
I2601
sS'sidelines'
p941
I2602
sS'couple'
p942
I801
sS'analysts'
p943
I3666
sS'fairly'
p944
I213
sS'satellite'
p945
I3722
sS'Institute'
p946
I1384
sS'Maybe'
p947
I214
sS'social'
p948
I602
sS'middle-aged'
p949
I215
sS'hand'
p950
I1385
sS'Angeles'
p951
I216
sS'day'
p952
I3421
sS'Morris'
p953
I2606
sS'Monsanto'
p954
I3834
sS'ownership'
p955
I217
sS'Home'
p956
I1188
sS'insisted'
p957
I3836
sS'opportunity'
p958
I2607
sS'blamed'
p959
I1386
sS'tune'
p960
I218
sS'midsized'
p961
I219
sS'butter'
p962
I2608
sS'kept'
p963
I1387
sS'RJR'
p964
I220
sS'1978'
p965
I1388
sS'she'
p966
I2247
sS'1976'
p967
I1389
sS'1975'
p968
I1390
sS'supervisors'
p969
I2627
sS'1971'
p970
I1391
sS'urged'
p971
I2056
sS'academic'
p972
I221
sS'savings'
p973
I3840
sS'materials'
p974
I542
sS'greatest'
p975
I3841
sS'Batman'
p976
I2212
sS'claims'
p977
I2613
sS'the'
p978
I1393
sS'800'
p979
I2614
sS'corporate'
p980
I222
sS'investments'
p981
I2615
sS'left'
p982
I2616
sS'Pete'
p983
I1394
sS'Swank'
p984
I1395
sS'quoted'
p985
I1396
sS'yen'
p986
I2619
sS'Cambodia'
p987
I1397
sS'aside'
p988
I433
sS'assigned'
p989
I2620
sS'proposes'
p990
I3846
sS'completed'
p991
I1296
sS'Management'
p992
I3279
sS'thanks'
p993
I1398
sS'human'
p994
I1182
sS'Day'
p995
I3937
sS'houses'
p996
I1865
sS'yet'
p997
I2621
sS'succeeding'
p998
I223
sS'previous'
p999
I224
sS'adding'
p1000
I1400
sS'buyers'
p1001
I2622
sS'designers'
p1002
I1405
sS'capacity-expansion'
p1003
I1401
sS'ease'
p1004
I225
sS'had'
p1005
I226
sS'emphasis'
p1006
I227
sS'Leonard'
p1007
I228
sS'spread'
p1008
I1403
sS'board'
p1009
I1404
sS'easy'
p1010
I1364
sS'News'
p1011
I2624
sS'Philip'
p1012
I3849
sS'has'
p1013
I229
sS'gave'
p1014
I3851
sS'Building'
p1015
I2626
sS'Santa'
p1016
I3468
sS'freedom'
p1017
I2339
sS'James'
p1018
I3852
sS'posed'
p1019
I230
sS'possible'
p1020
I231
sS'possibly'
p1021
I232
sS'cultural'
p1022
I3839
sS'buy-out'
p1023
I2628
sS'Chrysler'
p1024
I233
sS'wanting'
p1025
I2629
sS'judge'
p1026
I3854
sS'firmed'
p1027
I1399
sS'highly'
p1028
I1189
sS'retreat'
p1029
I1406
sS'apart'
p1030
I3856
sS'desire'
p1031
I234
sS'59'
p1032
I3857
sS'58'
p1033
I3858
sS'gift'
p1034
I3859
sS'visible'
p1035
I3671
sS'55'
p1036
I3861
sS'54'
p1037
I3862
sS'Shevardnadze'
p1038
I3860
sS'51'
p1039
I3863
sS'unnecessary'
p1040
I2630
sS'53'
p1041
I3865
sS'securities'
p1042
I1407
sS'private'
p1043
I802
sS'steps'
p1044
I235
sS'flaps'
p1045
I1651
sS'Jr.'
p1046
I2368
sS'Steven'
p1047
I236
sS'Lawrence'
p1048
I2348
sS'security'
p1049
I1409
sS'Agnellis'
p1050
I2632
sS'Pentagon'
p1051
I237
sS'Prince'
p1052
I1425
sS'S.'
p1053
I1410
sS'beneficial'
p1054
I238
sS'right'
p1055
I239
sS'old'
p1056
I240
sS'crowd'
p1057
I241
sS'people'
p1058
I242
sS'successfully'
p1059
I3869
sS'Sunbird'
p1060
I1411
sS'System'
p1061
I1437
sS'elderly'
p1062
I2635
sS'50'
p1063
I3864
sS'consultants'
p1064
I243
sS'Much'
p1065
I3870
sS'election'
p1066
I3871
sS'unless'
p1067
I3470
sS'short-term'
p1068
I2636
sS'W.Va'
p1069
I2637
sS'consensus'
p1070
I808
sS'Nixdorf'
p1071
I244
sS'for'
p1072
I245
sS'stronger'
p1073
I1019
sS'consecutive'
p1074
I2240
sS'Nobody'
p1075
I2639
sS'reinvest'
p1076
I3874
sS'savings-type'
p1077
I3875
sS'creative'
p1078
I246
sS'everything'
p1079
I3876
sS'asking'
p1080
I1414
sS'Let'
p1081
I1415
sS'motor-control'
p1082
I2640
sS'denied'
p1083
I1416
sS'offices'
p1084
I3867
sS'Accepted'
p1085
I3878
sS'Stoll'
p1086
I2631
sS'participation'
p1087
I1417
sS'He'
p1088
I3879
sS'core'
p1089
I3880
sS'School'
p1090
I1418
sS'expires'
p1091
I2218
sS'bold'
p1092
I2641
sS'marketing'
p1093
I1419
sS'corn'
p1094
I3881
sS'predicting'
p1095
I1496
sS'conventional'
p1096
I1794
sS'discount'
p1097
I3882
sS'outlays'
p1098
I3965
sS'Deposit'
p1099
I3883
sS'packages'
p1100
I1349
sS'losing'
p1101
I248
sS'brokerage'
p1102
I249
sS'post'
p1103
I1421
sS'manufacturing'
p1104
I250
sS'properties'
p1105
I1422
sS'First'
p1106
I251
sS'dollars'
p1107
I252
sS'months'
p1108
I1424
sS'rolled'
p1109
I181
sS'magazine'
p1110
I2644
sS'misleading'
p1111
I3884
sS'plus'
p1112
I2516
sS'banker'
p1113
I1426
sS'AG'
p1114
I2050
sS'efforts'
p1115
I3886
sS'Gomez'
p1116
I3887
sS'slightly'
p1117
I253
sS'objectives'
p1118
I608
sS'automatically'
p1119
I2647
sS'Donaldson'
p1120
I66
sS'consulting'
p1121
I254
sS'Express'
p1122
I3675
sS'statements'
p1123
I255
sS'publishing'
p1124
I746
sS'formerly'
p1125
I2650
sS'facility'
p1126
I256
sS'civil'
p1127
I3890
sS'pays'
p1128
I1427
sS'attorney'
p1129
I1886
sS'son'
p1130
I257
sS'administer'
p1131
I258
sS'device'
p1132
I1014
sS'accomplishments'
p1133
I3891
sS'magazines'
p1134
I259
sS'capped'
p1135
I1428
sS'Korean'
p1136
I260
sS'defendants'
p1137
I261
sS'pollen-inhibiting'
p1138
I1429
sS'particularly'
p1139
I3171
sS'branch'
p1140
I2034
sS'Cranston'
p1141
I2653
sS'deal'
p1142
I2633
sS'support'
p1143
I262
sS'flying'
p1144
I828
sS'legislation'
p1145
I1430
sS'cosmetics'
p1146
I1089
sS'one-time'
p1147
I263
sS'fight'
p1148
I1431
sS'fought'
p1149
I3894
sS'authorized'
p1150
I264
sS'wrongdoing'
p1151
I1432
sS'resulted'
p1152
I265
sS'call'
p1153
I2423
sS'was'
p1154
I1433
sS'war'
p1155
I1434
sS'launching'
p1156
I266
sS'interest-rate'
p1157
I1435
sS'head'
p1158
I3895
sS'economics'
p1159
I203
sS'slip'
p1160
I941
sS'form'
p1161
I1614
sS'offer'
p1162
I267
sS'Assume'
p1163
I2662
sS'January'
p1164
I2663
sS'becoming'
p1165
I1436
sS'6'
p1166
I609
sS'removes'
p1167
I3897
sS'landing'
p1168
I2664
sS'somehow'
p1169
I2634
sS'payable'
p1170
I3898
sS'heat'
p1171
I3899
sS'hear'
p1172
I3900
sS'syndicate'
p1173
I2666
sS'insider-trading'
p1174
I3902
sS'true'
p1175
I1439
sS'analyst'
p1176
I2667
sS'reset'
p1177
I1440
sS'Seagram'
p1178
I924
sS'counsel'
p1179
I3903
sS'high-quality'
p1180
I1441
sS'tack'
p1181
I4587
sS'Commission'
p1182
I1412
sS'spun'
p1183
I1937
sS'B.'
p1184
I2323
sS'attached'
p1185
I2670
sS'maximum'
p1186
I1442
sS'devices'
p1187
I269
sS'tell'
p1188
I2427
sS'County'
p1189
I270
sS'Engineering'
p1190
I271
sS'economic'
p1191
I2003
sS'S.p'
p1192
I2671
sS'}'
p1193
I1463
sS'unusually'
p1194
I1444
sS'reform'
p1195
I1621
sS'stages'
p1196
I2672
sS'enthusiastic'
p1197
I3476
sS'refillable'
p1198
I272
sS'<unk>'
p1199
I0
sS'150'
p1200
I273
sS'private-sector'
p1201
I1445
sS'proved'
p1202
I274
sS'156'
p1203
I275
sS'implications'
p1204
I1622
sS'Hudson'
p1205
I3905
sS'one-third'
p1206
I2675
sS'covers'
p1207
I2676
sS'evidence'
p1208
I1447
sS"''"
p1209
I277
sS'mostly'
p1210
I1600
sS'promised'
p1211
I1448
sS'request'
p1212
I3477
sS'Wathen'
p1213
I4661
sS'face'
p1214
I1021
sS'dealer'
p1215
I278
sS'negotiations'
p1216
I279
sS'Intel'
p1217
I4275
sS'Tashi'
p1218
I280
sS'1,000'
p1219
I3478
sS'weakened'
p1220
I1450
sS'floor'
p1221
I281
sS'stake'
p1222
I1451
sS'generally'
p1223
I2680
sS'topped'
p1224
I1452
sS'negotiators'
p1225
I1453
sS'composite'
p1226
I2428
sS'interested'
p1227
I1454
sS'role'
p1228
I282
sS'holding'
p1229
I1455
sS"M'Bow"
p1230
I3679
sS'test'
p1231
I1456
sS'developers'
p1232
I283
sS'roll'
p1233
I284
sS'realize'
p1234
I965
sS'picture'
p1235
I3917
sS'EST'
p1236
I3918
sS"'s"
p1237
I285
sS'get-together'
p1238
I286
sS'models'
p1239
I287
sS'why'
p1240
I2681
sS'Later'
p1241
I1457
sS'Wilmington'
p1242
I1458
sS'deficit-reduction'
p1243
I2374
sS'Trial'
p1244
I1459
sS"'d"
p1245
I288
sS'invested'
p1246
I289
sS'rising'
p1247
I4200
sS'scores'
p1248
I1460
sS'rolling'
p1249
I290
sS"'m"
p1250
I291
sS'Mass.'
p1251
I2685
sS'firms'
p1252
I900
sS'died'
p1253
I2686
sS'Lee'
p1254
I1413
sS'billion'
p1255
I2687
sS'younger'
p1256
I3920
sS'reorganization'
p1257
I293
sS'longer'
p1258
I3921
sS'Estate'
p1259
I1461
sS'excuse'
p1260
I1801
sS'assume'
p1261
I685
sS'T.'
p1262
I2052
sS'proposed'
p1263
I3843
sS'Charles'
p1264
I294
sS'affidavit'
p1265
I1464
sS'together'
p1266
I1465
sS'liquidity'
p1267
I451
sS'fastener'
p1268
I295
sS'warm'
p1269
I2430
sS'time'
p1270
I297
sS'push'
p1271
I298
sS'serious'
p1272
I4231
sS'debate'
p1273
I4625
sS'Moscow'
p1274
I2007
sS'profits'
p1275
I2690
sS'overdue'
p1276
I2691
sS'detective'
p1277
I4075
sS'Mayor'
p1278
I3589
sS'concept'
p1279
I1466
sS'managed'
p1280
I2692
sS'chain'
p1281
I299
sS'Indians'
p1282
I300
sS'alternatives'
p1283
I3925
sS'focus'
p1284
I3926
sS'deliveries'
p1285
I3927
sS'leads'
p1286
I3928
sS'manager'
p1287
I2693
sS'mile'
p1288
I2694
sS'battle'
p1289
I1470
sS'involved'
p1290
I909
sS'milk'
p1291
I2695
sS'Today'
p1292
I3930
sS'row'
p1293
I3931
sS'certainly'
p1294
I1471
sS'hold'
p1295
I301
sS'Columbia'
p1296
I3932
sS'757-200s'
p1297
I2697
sS'balloons'
p1298
I2313
sS'religion'
p1299
I817
sS'technique'
p1300
I2698
sS'Ridley'
p1301
I2700
sS'environment'
p1302
I3934
sS'company'
p1303
I614
sS'finally'
p1304
I2701
sS'compensate'
p1305
I1474
sS'Lighting'
p1306
I302
sS'marks'
p1307
I2702
sS'Atlanta'
p1308
I2703
sS'must'
p1309
I3682
sS'swap'
p1310
I2384
sS'eliminate'
p1311
I303
sS'1991'
p1312
I1199
sS'supported'
p1313
I3481
sS'string'
p1314
I2705
sS'prepaid'
p1315
I304
sS'revamping'
p1316
I305
sS'blase'
p1317
I1476
sS'confidence'
p1318
I922
sS'consolidation'
p1319
I306
sS'choice'
p1320
I307
sS'liability'
p1321
I1477
sS'automobiles'
p1322
I1478
sS'tanks'
p1323
I3939
sS'advised'
p1324
I2706
sS'10-year'
p1325
I1479
sS'word'
p1326
I821
sS'airing'
p1327
I440
sS'blast'
p1328
I1481
sS'Where'
p1329
I2708
sS'minute'
p1330
I308
sS'governments'
p1331
I2709
sS'Just'
p1332
I1484
sS'level'
p1333
I3941
sS'did'
p1334
I2711
sS'Ltd'
p1335
I1946
sS'Tax'
p1336
I309
sS'Intelogic'
p1337
I310
sS'magnet'
p1338
I2713
sS'third-largest'
p1339
I1855
sS'progress'
p1340
I3507
sS'team'
p1341
I312
sS'quick'
p1342
I3944
sS'speculation'
p1343
I314
sS'George'
p1344
I1486
sS'Systems'
p1345
I454
sS'Reich'
p1346
I3189
sS'prevent'
p1347
I315
sS'revolution'
p1348
I1487
sS'says'
p1349
I3946
sS'findings'
p1350
I316
sS'tougher'
p1351
I3947
sS'trend'
p1352
I3948
sS'plunged'
p1353
I63
sS'injunction'
p1354
I3949
sS'sign'
p1355
I317
sS'utility'
p1356
I2345
sS'cost'
p1357
I1488
sS'Northwest'
p1358
I3950
sS'takeoff'
p1359
I3951
sS'patient'
p1360
I3288
sS'Weyerhaeuser'
p1361
I2719
sS'targets'
p1362
I2720
sS'substitute'
p1363
I3952
sS'drinks'
p1364
I3953
sS'majors'
p1365
I2721
sS'Bert'
p1366
I1489
sS'Newsom'
p1367
I3954
sS'adds'
p1368
I2722
sS'appear'
p1369
I1490
sS'economist'
p1370
I1026
sS'shares'
p1371
I1491
sS'Ford'
p1372
I1492
sS'current'
p1373
I318
sS'goes'
p1374
I3956
sS'During'
p1375
I1493
sS'falling'
p1376
I319
sS'appeal'
p1377
I1494
sS'boost'
p1378
I320
sS'collateral'
p1379
I1495
sS'Bill'
p1380
I2724
sS'jury'
p1381
I321
sS'partners'
p1382
I2227
sS'genes'
p1383
I1497
sS'Bids'
p1384
I2726
sS'Aga'
p1385
I3958
sS'exceptions'
p1386
I2435
sS'slow'
p1387
I456
sS'baseball'
p1388
I3961
sS'groups'
p1389
I3962
sS'English'
p1390
I1498
sS'alone'
p1391
I324
sS'based'
p1392
I2228
sS'along'
p1393
I325
sS'refused'
p1394
I4482
sS'My'
p1395
I326
sS'appears'
p1396
I1499
sS'change'
p1397
I1500
sS'Warner'
p1398
I327
sS'passengers'
p1399
I328
sS'Dean'
p1400
I1502
sS'cuckoo'
p1401
I2730
sS'restrictive'
p1402
I3292
sS'brilliant'
p1403
I329
sS'Meanwhile'
p1404
I1029
sS'guilty'
p1405
I3964
sS'restructuring'
p1406
I1420
sS'trial'
p1407
I1503
sS'Associates'
p1408
I330
sS'suggestion'
p1409
I2731
sS'usually'
p1410
I1504
sS'history'
p1411
I1807
sS'studies'
p1412
I331
sS'Maine'
p1413
I3967
sS'confrontation'
p1414
I2642
sS'Canter'
p1415
I332
sS'tasks'
p1416
I333
sS'love'
p1417
I334
sS'Justice'
p1418
I3968
sS'lending'
p1419
I1506
sS'Pennzoil'
p1420
I2013
sS'prefer'
p1421
I335
sS'Brissette'
p1422
I3969
sS'licensing'
p1423
I2000
sS'fake'
p1424
I336
sS'rarely'
p1425
I1507
sS'pitchers'
p1426
I2014
sS'market'
p1427
I1508
sS'everybody'
p1428
I2009
sS'Greenery'
p1429
I3970
sS'Australia'
p1430
I2737
sS'spouses'
p1431
I2401
sS'working'
p1432
I338
sS'prove'
p1433
I1510
sS'wicker'
p1434
I339
sS'give'
p1435
I2436
sS'visit'
p1436
I2739
sS'third-quarter'
p1437
I3972
sS'by'
p1438
I823
sS'insider'
p1439
I2024
sS'2645.08'
p1440
I340
sS'jam'
p1441
I1512
sS'opposed'
p1442
I341
sS'memory'
p1443
I3975
sS'scope'
p1444
I342
sS'Those'
p1445
I343
sS'``'
p1446
I344
sS'October'
p1447
I3977
sS'continue'
p1448
I247
sS'club'
p1449
I1513
sS'minimum-wage'
p1450
I1514
sS'Mount'
p1451
I1515
sS'Public'
p1452
I2226
sS'refrain'
p1453
I345
sS'clue'
p1454
I1516
sS'Barr'
p1455
I346
sS'rigid'
p1456
I2741
sS'Time'
p1457
I3979
sS'cases'
p1458
I3980
sS'effort'
p1459
I2742
sS'behalf'
p1460
I347
sS'fly'
p1461
I2743
sS'involve'
p1462
I2438
sS'valued'
p1463
I349
sS'currency'
p1464
I350
sS'German'
p1465
I3981
sS'thousands'
p1466
I3982
sS'originally'
p1467
I351
sS'cap'
p1468
I1519
sS'genetic'
p1469
I1071
sS'Kume'
p1470
I3056
sS'Pacific'
p1471
I2744
sS'believes'
p1472
I352
sS'printing'
p1473
I353
sS'values'
p1474
I354
sS'can'
p1475
I1520
sS'believed'
p1476
I355
sS'Our'
p1477
I356
sS'newspapers'
p1478
I1423
sS'most'
p1479
I3160
sS'spy'
p1480
I1521
sS'want'
p1481
I68
sS'figure'
p1482
I3984
sS'Federal'
p1483
I358
sS'expanding'
p1484
I1522
sS'chip'
p1485
I1523
sS'restaurants'
p1486
I3200
sS'topic'
p1487
I1524
sS'spending'
p1488
I834
sS'critic'
p1489
I3985
sS'performed'
p1490
I820
sS'allowed'
p1491
I359
sS'occur'
p1492
I1526
sS'gimmickry'
p1493
I360
sS'parliamentary'
p1494
I3988
sS'requirements'
p1495
I3989
sS'Dataproducts'
p1496
I1528
sS'discussion'
p1497
I1529
sS'watching'
p1498
I4662
sS'write'
p1499
I1530
sS'actual'
p1500
I3584
sS'fourth'
p1501
I3991
sS'Louis'
p1502
I4082
sS'Including'
p1503
I2645
sS'subsidiaries'
p1504
I4601
sS'sworn'
p1505
I2751
sS'Why'
p1506
I362
sS'five-year'
p1507
I363
sS'!'
p1508
I3061
sS'product'
p1509
I1532
sS'145'
p1510
I2752
sS'building'
p1511
I1754
sS'huge'
p1512
I627
sS'may'
p1513
I2753
sS'Average'
p1514
I3993
sS'sour'
p1515
I2745
sS'spot'
p1516
I364
sS'membership'
p1517
I2755
sS'produce'
p1518
I1534
sS'designed'
p1519
I2756
sS'Lufkin'
p1520
I3995
sS'date'
p1521
I365
sS'such'
p1522
I366
sS'truly'
p1523
I1636
sS'data'
p1524
I367
sS'grow'
p1525
I2758
sS'man'
p1526
I2759
sS'Still'
p1527
I3996
sS'natural'
p1528
I368
sS'remember'
p1529
I1537
sS'sectors'
p1530
I369
sS'maybe'
p1531
I2201
sS'futures'
p1532
I1539
sS'borrowing'
p1533
I2761
sS'tale'
p1534
I2762
sS'subminimum'
p1535
I3066
sS'criminal'
p1536
I3416
sS'ones'
p1537
I4663
sS'so'
p1538
I370
sS'basket'
p1539
I2763
sS'pollution'
p1540
I3297
sS'pulled'
p1541
I371
sS'talk'
p1542
I2764
sS'exclusive'
p1543
I1006
sS'hoped'
p1544
I3307
sS'serving'
p1545
I1541
sS'Series'
p1546
I2760
sS'nerve'
p1547
I1482
sS'mainly'
p1548
I4000
sS'raised'
p1549
I1542
sS'years'
p1550
I372
sS'stability'
p1551
I2767
sS'hiring'
p1552
I2246
sS'Genetic'
p1553
I1544
sS'cuts'
p1554
I2768
sS'argued'
p1555
I2769
sS'managers'
p1556
I2649
sS'cold'
p1557
I1545
sS'still'
p1558
I1546
sS'stock-index'
p1559
I4002
sS'Shaw'
p1560
I829
sS'Accord'
p1561
I4003
sS'overhaul'
p1562
I374
sS'courthouse'
p1563
I4004
sS'interesting'
p1564
I2772
sS'Lehman'
p1565
I1941
sS'troubles'
p1566
I377
sS'repertoire'
p1567
I3230
sS'window'
p1568
I1548
sS'offers'
p1569
I4005
sS'listing'
p1570
I2773
sS'policy'
p1571
I2774
sS'mail'
p1572
I2775
sS'troubled'
p1573
I379
sS'decades'
p1574
I380
sS'into'
p1575
I830
sS'happened'
p1576
I4007
sS'TCMP'
p1577
I381
sS'finance'
p1578
I2777
sS'thereby'
p1579
I382
sS'views'
p1580
I2778
sS'impulses'
p1581
I2779
sS'100,000'
p1582
I1549
sS'sweetened'
p1583
I1550
sS'undisclosed'
p1584
I2780
sS'introduce'
p1585
I1551
sS'nation'
p1586
I383
sS'records'
p1587
I384
sS'Because'
p1588
I1039
sS'compelled'
p1589
I385
sS'Kemp'
p1590
I386
sS'not'
p1591
I1553
sS'R.'
p1592
I1555
sS'now'
p1593
I1556
sS'provision'
p1594
I1557
sS'discuss'
p1595
I1558
sS'nor'
p1596
I1559
sS'down'
p1597
I2652
sS'term'
p1598
I4008
sS'attorneys'
p1599
I2781
sS'name'
p1600
I4009
sS'Their'
p1601
I2023
sS'resignation'
p1602
I2782
sS'drop'
p1603
I1560
sS'imports'
p1604
I4345
sS'gain'
p1605
I2354
sS'Stanley'
p1606
I388
sS'entirely'
p1607
I1561
sS'quarter'
p1608
I389
sS'Milk'
p1609
I3776
sS'Bros.'
p1610
I4010
sS'A'
p1611
I76
sS'weighted'
p1612
I4011
sS'significantly'
p1613
I4773
sS'Holdings'
p1614
I2784
sS'Gonzalez'
p1615
I2143
sS'revised'
p1616
I390
sS'plant'
p1617
I630
sS'challenges'
p1618
I1564
sS'begun'
p1619
I4012
sS'year'
p1620
I1565
sS'worried'
p1621
I466
sS'pills'
p1622
I1567
sS'Carolina'
p1623
I1376
sS'hacker'
p1624
I4014
sS'living'
p1625
I2785
sS'shown'
p1626
I1569
sS'accomplish'
p1627
I1570
sS'container'
p1628
I391
sS'opened'
p1629
I1571
sS'bullish'
p1630
I1572
sS'space'
p1631
I1573
sS'profit'
p1632
I4017
sS'Michigan'
p1633
I392
sS'factory'
p1634
I4018
sS'increase'
p1635
I1574
sS'mess'
p1636
I3697
sS'seriously'
p1637
I393
sS'bailout'
p1638
I2788
sS'suggesting'
p1639
I395
sS'EG&G'
p1640
I2789
sS'correct'
p1641
I2790
sS'shows'
p1642
I1576
sS'Commerce'
p1643
I2792
sS'earlier'
p1644
I2793
sS'allegation'
p1645
I1043
sS'Rights'
p1646
I2794
sS'cars'
p1647
I1578
sS'million'
p1648
I397
sS'possibility'
p1649
I398
sS'economy'
p1650
I1531
sS'Castro'
p1651
I2445
sS'plea'
p1652
I399
sS'repurchase'
p1653
I1579
sS'Security'
p1654
I4021
sS'remainder'
p1655
I400
sS'care'
p1656
I1581
sS'advance'
p1657
I2796
sS'Tiananmen'
p1658
I2429
sS'Already'
p1659
I2797
sS'where'
p1660
I467
sS'merger'
p1661
I3180
sS'vehemently'
p1662
I1583
sS'replacement'
p1663
I1095
sS'motion'
p1664
I4022
sS'thing'
p1665
I2798
sS'fellow'
p1666
I3526
sS'plane'
p1667
I632
sS'place'
p1668
I4024
sS'Brantford'
p1669
I2654
sS'invitation'
p1670
I1584
sS'routes'
p1671
I404
sS'economic-forecasting'
p1672
I2799
sS'promotion'
p1673
I1586
sS'Gnu-Emacs'
p1674
I2248
sS'discontinued'
p1675
I4025
sS'frequent'
p1676
I2801
sS'first'
p1677
I2802
sS'Even'
p1678
I1587
sS'Rated'
p1679
I88
sS'revenue'
p1680
I4026
sS'spoken'
p1681
I407
sS'clause'
p1682
I2466
sS'There'
p1683
I1589
sS'Asia'
p1684
I1590
sS'yourself'
p1685
I95
sS'Graeme'
p1686
I2803
sS'soaring'
p1687
I4028
sS'Krebs'
p1688
I2479
sS'Backer'
p1689
I2656
sS'suspended'
p1690
I2805
sS'carry'
p1691
I2806
sS'corporations'
p1692
I2807
sS'array'
p1693
I4029
sS'drove'
p1694
I1593
sS'open'
p1695
I411
sS'tomorrow'
p1696
I1594
sS'millions'
p1697
I4030
sS'city'
p1698
I412
sS'Levy'
p1699
I3350
sS'others'
p1700
I3365
sS'sheet'
p1701
I1596
sS'district'
p1702
I4032
sS'J.P.'
p1703
I2810
sS'structured'
p1704
I414
sS'Commercial'
p1705
I4034
sS'1.50'
p1706
I3302
sS'Dow'
p1707
I3072
sS'stimulation'
p1708
I4036
sS'indicate'
p1709
I415
sS'returns'
p1710
I4037
sS'2'
p1711
I416
sS'SEC'
p1712
I4038
sS'convention'
p1713
I4039
sS'Cult'
p1714
I4040
sS'Such'
p1715
I4041
sS'white'
p1716
I4042
sS'Data'
p1717
I4043
sS'friend'
p1718
I1599
sS'editor'
p1719
I2657
sS'exploring'
p1720
I4045
sS'mining'
p1721
I2520
sS'fraction'
p1722
I2658
sS'allegedly'
p1723
I2813
sS'that'
p1724
I1601
sS'season'
p1725
I4048
sS'Hispanic'
p1726
I146
sS'criticize'
p1727
I1816
sS'hope'
p1728
I1034
sS'packet'
p1729
I1047
sS'specialists'
p1730
I419
sS'clients'
p1731
I935
sS'surged'
p1732
I2539
sS'than'
p1733
I1603
sS'specify'
p1734
I4051
sS'11'
p1735
I2814
sS'wide'
p1736
I4052
sS'13'
p1737
I2816
sS'12'
p1738
I2817
sS'15'
p1739
I2818
sS'unfortunately'
p1740
I4053
sS'17'
p1741
I2820
sS'16'
p1742
I2821
sS'19'
p1743
I2822
sS'18'
p1744
I2823
sS'require'
p1745
I4054
sS'diplomatic'
p1746
I4055
sS'transferred'
p1747
I1607
sS'spokeswoman'
p1748
I4056
sS'future'
p1749
I423
sS'glossy'
p1750
I424
sS'venture'
p1751
I2824
sS'were'
p1752
I2825
sS'cards'
p1753
I4058
sS'Orkem'
p1754
I1608
sS'subcommittee'
p1755
I1049
sS'and'
p1756
I4059
sS'62.875'
p1757
I2659
sS'Kuehn'
p1758
I2826
sS'Court'
p1759
I2827
sS'armored'
p1760
I4060
sS'investors'
p1761
I1609
sS'remained'
p1762
I1610
sS'NATO'
p1763
I927
sS'premier'
p1764
I1611
sS'turned'
p1765
I425
sS'argument'
p1766
I426
sS'headquarters'
p1767
I427
sS'already'
p1768
I3735
sS'say'
p1769
I428
sS'conspiracy'
p1770
I2828
sS'Inquiry'
p1771
I429
sS'rent'
p1772
I4061
sS'anger'
p1773
I1612
sS'DNA'
p1774
I2660
sS'sells'
p1775
I4062
sS'recover'
p1776
I1613
sS'saw'
p1777
I430
sS'any'
p1778
I4064
sS'sat'
p1779
I431
sS'Do'
p1780
I2832
sS'offering'
p1781
I2661
sS'fashionable'
p1782
I432
sS'veteran'
p1783
I1615
sS'Murphy'
p1784
I2617
sS'ideas'
p1785
I4065
sS'note'
p1786
I434
sS'equipment'
p1787
I1616
sS'ideal'
p1788
I4066
sS'potential'
p1789
I2833
sS'take'
p1790
I435
sS'attempted'
p1791
I3896
sS'performance'
p1792
I2834
sS'Leemans'
p1793
I437
sS'Du'
p1794
I2835
sS'high-technology'
p1795
I438
sS'registered'
p1796
I2031
sS'channel'
p1797
I2836
sS'200'
p1798
I2837
sS'begin'
p1799
I1617
sS'SUNY'
p1800
I1618
sS'multiple'
p1801
I4068
sS'opposite'
p1802
I439
sS'track'
p1803
I2839
sS'price'
p1804
I1619
sS'enter'
p1805
I3704
sS'TV'
p1806
I2931
sS'paid'
p1807
I2841
sS'specialty'
p1808
I2033
sS'Separately'
p1809
I2643
sS'near-term'
p1810
I1068
sS'Gandhi'
p1811
I4069
sS'remarks'
p1812
I441
sS'cleared'
p1813
I4070
sS'inserted'
p1814
I442
sS'GOP'
p1815
I4071
sS'involving'
p1816
I1301
sS'D.'
p1817
I2842
sS'Trust'
p1818
I2843
sS'especially'
p1819
I2844
sS'surprising'
p1820
I2845
sS'failure'
p1821
I2665
sS'considered'
p1822
I4072
sS'average'
p1823
I445
sS'later'
p1824
I3376
sS'Chez'
p1825
I447
sS'hungry'
p1826
I4073
sS'playing'
p1827
I3073
sS'federal'
p1828
I449
sS'stock-market'
p1829
I1986
sS'refining'
p1830
I450
sS'jumped'
p1831
I469
sS'Accounting'
p1832
I2847
sS'senior'
p1833
I4074
sS'50.875'
p1834
I638
sS'typically'
p1835
I1624
sS'filing'
p1836
I1625
sS'laws'
p1837
I452
sS'shop'
p1838
I2848
sS'rating'
p1839
I2849
sS'Northeast'
p1840
I1627
sS'surplus'
p1841
I453
sS'3.75'
p1842
I1628
sS'heredity'
p1843
I4182
sS'allegations'
p1844
I4076
sS'contemporary'
p1845
I2851
sS'Research'
p1846
I4077
sS'discovered'
p1847
I1629
sS'Switzerland'
p1848
I2035
sS'steelmakers'
p1849
I1869
sS'Stephen'
p1850
I2852
sS'Bundesbank'
p1851
I4078
sS'aggressive'
p1852
I455
sS'label'
p1853
I2853
sS'ground'
p1854
I1630
sS'Mikhail'
p1855
I1643
sS'We'
p1856
I2854
sS'upgrade'
p1857
I1631
sS'Worse'
p1858
I1632
sS'Banxquote'
p1859
I625
sS'title'
p1860
I1633
sS'Kansas'
p1861
I1634
sS'Berlin'
p1862
I1644
sS'crime'
p1863
I4081
sS'only'
p1864
I1635
sS'going'
p1865
I458
sS'black'
p1866
I2856
sS'Sox'
p1867
I785
sS'Services'
p1868
I2857
sS'Housing'
p1869
I459
sS'congressional'
p1870
I460
sS'dispute'
p1871
I461
sS'ranking'
p1872
I2858
sS'over'
p1873
I3705
sS'non-invasive'
p1874
I2153
sS'stay'
p1875
I2373
sS'get'
p1876
I2859
sS'contracts'
p1877
I2860
sS'assistant'
p1878
I462
sS'jazz'
p1879
I4083
sS'RISC'
p1880
I2861
sS'employers'
p1881
I2862
sS'affecting'
p1882
I472
sS'hailed'
p1883
I2864
sS'nearly'
p1884
I2865
sS'BNL'
p1885
I2866
sS'Richard'
p1886
I2204
sS'recombinant'
p1887
I463
sS'neither'
p1888
I2258
sS'comment'
p1889
I3515
sS'secondary'
p1890
I2867
sS'prime'
p1891
I464
sS'Filipinos'
p1892
I2868
sS'W.'
p1893
I2869
sS'seldom'
p1894
I1637
sS'versions'
p1895
I4084
sS'borrow'
p1896
I465
sS'yield'
p1897
I2870
sS'morning'
p1898
I2871
sS'miles'
p1899
I2872
sS'losers'
p1900
I1638
sS'predicted'
p1901
I4086
sS'forces'
p1902
I1295
sS'At'
p1903
I2062
sS'discussing'
p1904
I4087
sS'administration'
p1905
I1825
sS'declared'
p1906
I2873
sS'concert'
p1907
I1639
sS'encourages'
p1908
I4088
sS'bids'
p1909
I3904
sS'whitewash'
p1910
I418
sS'ends'
p1911
I1055
sS'seat'
p1912
I2875
sS'elected'
p1913
I1641
sS'college'
p1914
I4089
sS'slashing'
p1915
I4090
sS'Neave'
p1916
I2876
sS'Manufacturers'
p1917
I2877
sS'surgery'
p1918
I2831
sS'concern'
p1919
I1642
sS'retire'
p1920
I2535
sS'Church'
p1921
I468
sS'Shopping'
p1922
I4091
sS'Johnson'
p1923
I1647
sS'mortgage'
p1924
I4092
sS'That'
p1925
I2846
sS'ways'
p1926
I3590
sS'subsequent'
p1927
I4095
sS'review'
p1928
I4096
sS'representatives'
p1929
I470
sS'repeal'
p1930
I1151
sS'forecast'
p1931
I2881
sS'weapons'
p1932
I4098
sS'single-A-3'
p1933
I1056
sS'outside'
p1934
I4099
sS'Mather'
p1935
I471
sS'Members'
p1936
I1645
sS'between'
p1937
I1646
sS'Baja'
p1938
I2863
sS'cautiously'
p1939
I2036
sS'Mitsubishi'
p1940
I473
sS'across'
p1941
I2883
sS'toying'
p1942
I4100
sS'gives'
p1943
I4044
sS'infrastructure'
p1944
I2884
sS'jobs'
p1945
I474
sS'FOR'
p1946
I2880
sS'U.S.'
p1947
I4101
sS'apiece'
p1948
I853
sS'26'
p1949
I3079
sS'rapidly'
p1950
I646
sS'Securities'
p1951
I475
sS'10.2'
p1952
I2461
sS'diners'
p1953
I4102
sS'Each'
p1954
I2886
sS'article'
p1955
I1648
sS'spark'
p1956
I477
sS'cities'
p1957
I4103
sS'come'
p1958
I4104
sS'reaction'
p1959
I4105
sS'dates'
p1960
I2887
sS'acquiring'
p1961
I4106
sS'missions'
p1962
I4107
sS'many'
p1963
I478
sS'trader'
p1964
I2889
sS'trades'
p1965
I2890
sS'according'
p1966
I2891
sS'contract'
p1967
I4109
sS'officer'
p1968
I3868
sS'personal'
p1969
I2462
sS'concentrate'
p1970
I476
sS'Wall'
p1971
I3611
sS'Laboratory'
p1972
I2892
sS'holders'
p1973
I2893
sS'traded'
p1974
I2894
sS'Investment'
p1975
I4111
sS'comes'
p1976
I1652
sS'nearby'
p1977
I1653
sS'affairs'
p1978
I776
sS'provoked'
p1979
I3469
sS'Mortgage'
p1980
I479
sS'passenger'
p1981
I1654
sS'color'
p1982
I4112
sS'Pictures'
p1983
I1655
sS'hybrids'
p1984
I1656
sS'Nekoosa'
p1985
I2267
sS'jeans'
p1986
I1657
sS'promises'
p1987
I4113
sS'pop'
p1988
I519
sS'expectations'
p1989
I3707
sS'60'
p1990
I521
sS'61'
p1991
I4115
sS'maintained'
p1992
I2896
sS'grants'
p1993
I2897
sS'Jahn'
p1994
I4117
sS'learning'
p1995
I1659
sS'67'
p1996
I4369
sS'68'
p1997
I4119
sS'constant'
p1998
I3318
sS'bizarre'
p1999
I525
sS'Horton'
p2000
I480
sS'Leader'
p2001
I1660
sS'considering'
p2002
I2898
sS'sprays'
p2003
I2465
sS'unusual'
p2004
I2899
sS'Calif.'
p2005
I2900
sS'conventional-arms'
p2006
I2223
sS'Electric'
p2007
I4122
sS'P.'
p2008
I1060
sS'recognize'
p2009
I1136
sS'But'
p2010
I4123
sS'coupe'
p2011
I4124
sS'defined'
p2012
I856
sS'Healthcare'
p2013
I1127
sS'Lynch'
p2014
I482
sS'motives'
p2015
I483
sS'Nuclear'
p2016
I2673
sS'technical'
p2017
I763
sS'hardly'
p2018
I4125
sS'estimated'
p2019
I2106
sS'500'
p2020
I4126
sS'disclosed'
p2021
I1833
sS'wants'
p2022
I484
sS'BankAmerica'
p2023
I485
sS'direction'
p2024
I4128
sS'enable'
p2025
I486
sS'shopping'
p2026
I2901
sS'gray'
p2027
I2243
sS'influence'
p2028
I858
sS'offered'
p2029
I2902
sS'formed'
p2030
I487
sS'Deseret'
p2031
I4130
sS'centerpiece'
p2032
I488
sS'dramatic'
p2033
I2903
sS'wake'
p2034
I2904
sS'suspicions'
p2035
I3906
sS'stems'
p2036
I1664
sS'suspected'
p2037
I1665
sS'former'
p2038
I490
sS'those'
p2039
I2905
sS'pilot'
p2040
I4132
sS'paying'
p2041
I581
sS'per-capita'
p2042
I3907
sS'myself'
p2043
I4134
sS'MORTGAGE'
p2044
I491
sS'developing'
p2045
I1666
sS'these'
p2046
I1667
sS'consultant'
p2047
I492
sS'Reagan'
p2048
I1668
sS'cash'
p2049
I4135
sS"n't"
p2050
I2907
sS'Edward'
p2051
I2041
sS'ally'
p2052
I648
sS'policies'
p2053
I494
sS'newspaper'
p2054
I495
sS'Laurel'
p2055
I4136
sS'Order'
p2056
I3549
sS'Moody'
p2057
I1836
sS'sorghum'
p2058
I1669
sS'region'
p2059
I4108
sS'exercisable'
p2060
I1670
sS'operate'
p2061
I2457
sS'managing'
p2062
I4094
sS'conferences'
p2063
I2910
sS'eventually'
p2064
I2911
sS'soil'
p2065
I1671
sS'Democratic'
p2066
I1000
sS'health-care'
p2067
I1672
sS'engaged'
p2068
I497
sS'coffee'
p2069
I2912
sS'Peters'
p2070
I3045
sS'refinery'
p2071
I4138
sS'increased'
p2072
I1090
sS'evening'
p2073
I1837
sS'drug'
p2074
I1063
sS'Bar'
p2075
I3089
sS'13.5'
p2076
I498
sS'technology'
p2077
I499
sS'worry'
p2078
I1673
sS'13.1'
p2079
I500
sS'bags'
p2080
I2913
sS'par'
p2081
I4505
sS'dragging'
p2082
I501
sS'develop'
p2083
I1675
sS'handled'
p2084
I3971
sS'media'
p2085
I1676
sS'granted'
p2086
I4139
sS'negotiating'
p2087
I3752
sS'same'
p2088
I2916
sS'check'
p2089
I4140
sS'Freddie'
p2090
I502
sS'inquiry'
p2091
I1677
sS'550,000'
p2092
I503
sS'When'
p2093
I2736
sS'a.m.'
p2094
I2275
sS'cotton'
p2095
I2042
sS'bring'
p2096
I1024
sS'events'
p2097
I4142
sS'status'
p2098
I654
sS'oil'
p2099
I2918
sS'edged'
p2100
I504
sS'Salvador'
p2101
I2919
sS'abandoned'
p2102
I4256
sS'I'
p2103
I505
sS'boosted'
p2104
I506
sS'refusal'
p2105
I4145
sS'Toyota'
p2106
I664
sS'Rockefeller'
p2107
I4146
sS'companion'
p2108
I2920
sS'producers'
p2109
I4147
sS'statutory'
p2110
I671
sS'driven'
p2111
I668
sS'delicate'
p2112
I4149
sS'intended'
p2113
I631
sS'Banks'
p2114
I4150
sS'climbing'
p2115
I2923
sS'totally'
p2116
I2924
sS'complained'
p2117
I1679
sS'drain'
p2118
I2925
sS'ballooning'
p2119
I2704
sS'academics'
p2120
I2471
sS'charges'
p2121
I1680
sS'sales'
p2122
I1745
sS'Renk'
p2123
I2927
sS'no'
p2124
I3910
sS'Motors'
p2125
I2928
sS'roughly'
p2126
I2929
sS'mortgages'
p2127
I2930
sS'Rep.'
p2128
I1682
sS'severe'
p2129
I1683
sS'costs'
p2130
I508
sS'relief'
p2131
I4155
sS'components'
p2132
I4156
sS'In'
p2133
I4157
sS'researchers'
p2134
I4158
sS'If'
p2135
I4159
sS'summer'
p2136
I509
sS'Ruffo'
p2137
I2679
sS'Service'
p2138
I1685
sS'among'
p2139
I2895
sS'Ways'
p2140
I2933
sS'formula'
p2141
I396
sS'adjustments'
p2142
I2935
sS'superconductors'
p2143
I1686
sS'Minn.'
p2144
I1687
sS'Pine'
p2145
I4161
sS'Conservative'
p2146
I3191
sS'communities'
p2147
I4309
sS'violent'
p2148
I4162
sS'kill'
p2149
I4163
sS'So'
p2150
I1802
sS'touch'
p2151
I1690
sS'Markets'
p2152
I513
sS'Sterling'
p2153
I1692
sS'announcement'
p2154
I4165
sS'renewed'
p2155
I1693
sS'thinking'
p2156
I1694
sS'tourism'
p2157
I3712
sS'seems'
p2158
I4167
sS'politicians'
p2159
I2046
sS'Weekes'
p2160
I2936
sS'nominees'
p2161
I1053
sS'1.8200'
p2162
I4168
sS'setting'
p2163
I3913
sS'bloc'
p2164
I4169
sS'treatment'
p2165
I1695
sS'Although'
p2166
I2938
sS'Wash.'
p2167
I2047
sS'struck'
p2168
I756
sS'disrupt'
p2169
I4170
sS'pill'
p2170
I2939
sS'real'
p2171
I1697
sS'drink'
p2172
I1075
sS'aspects'
p2173
I514
sS'around'
p2174
I515
sS'last'
p2175
I737
sS'read'
p2176
I772
sS'Many'
p2177
I4174
sS'papers'
p2178
I3915
sS'period'
p2179
I517
sS'Project'
p2180
I782
sS'inflation'
p2181
I4177
sS'traffic'
p2182
I518
sS'pages'
p2183
I443
sS'listening'
p2184
I1700
sS'credentials'
p2185
I2940
sS'railroad'
p2186
I2941
sS'execution'
p2187
I1702
sS'disappointed'
p2188
I2942
sS'U.N.'
p2189
I4179
sS'furniture'
p2190
I4180
sS'Shop'
p2191
I1705
sS'standstill'
p2192
I803
sS'pounds'
p2193
I1706
sS'62'
p2194
I4116
sS'serves'
p2195
I2943
sS'subordinated'
p2196
I387
sS'annually'
p2197
I1707
sS'chamber'
p2198
I2945
sS'benefit'
p2199
I1708
sS'superiority'
p2200
I522
sS'either'
p2201
I2948
sS'retailers'
p2202
I2949
sS'Suns'
p2203
I1709
sS'output'
p2204
I1710
sS'downward'
p2205
I1046
sS'reduced'
p2206
I4183
sS'insured'
p2207
I2221
sS'65'
p2208
I523
sS'Jewelry'
p2209
I2951
sS'Entertainment'
p2210
I2952
sS'West'
p2211
I1135
sS'Since'
p2212
I4185
sS'draw'
p2213
I2049
sS'Mark'
p2214
I1712
sS'depressed'
p2215
I421
sS'Kimberly-Clark'
p2216
I2699
sS'images'
p2217
I2954
sS'New'
p2218
I2955
sS'Net'
p2219
I2956
sS'intact'
p2220
I861
sS'matching'
p2221
I2957
sS'Vienna'
p2222
I526
sS'gross'
p2223
I2958
sS'swaps'
p2224
I865
sS'two-year'
p2225
I4120
sS'tube'
p2226
I3340
sS'Earlier'
p2227
I1713
sS'recorded'
p2228
I1714
sS'legal'
p2229
I4189
sS'QVC'
p2230
I877
sS'toad'
p2231
I3919
sS'dealership'
p2232
I1716
sS'On'
p2233
I2239
sS'deficit'
p2234
I1717
sS'provides'
p2235
I4190
sS'provider'
p2236
I4191
sS'affiliate'
p2237
I3716
sS'moderate'
p2238
I1883
sS'Projects'
p2239
I527
sS'Chapter'
p2240
I2960
sS'specializing'
p2241
I2961
sS'felt'
p2242
I2682
sS'assembly'
p2243
I1719
sS'scientific'
p2244
I528
sS'power'
p2245
I529
sS'retains'
p2246
I530
sS'equivalent'
p2247
I901
sS'broker'
p2248
I2964
sS'notably'
p2249
I2965
sS'meets'
p2250
I2603
sS'leadership'
p2251
I531
sS'found'
p2252
I652
sS'containerboard'
p2253
I1721
sS'exciting'
p2254
I1722
sS'7.96'
p2255
I1245
sS'released'
p2256
I4049
sS'executives'
p2257
I532
sS'Goya'
p2258
I4192
sS'on'
p2259
I4193
sS'conducting'
p2260
I2967
sS'central'
p2261
I1723
sS'S.A.'
p2262
I1724
sS'Revenue'
p2263
I2968
sS'of'
p2264
I4194
sS'industry'
p2265
I533
sS'favorite'
p2266
I534
sS'drag'
p2267
I2053
sS'side'
p2268
I2481
sS'fell'
p2269
I2683
sS'stand'
p2270
I4196
sS'Chevron'
p2271
I1725
sS'act'
p2272
I535
sS'mixed'
p2273
I2972
sS'bond'
p2274
I2482
sS'or'
p2275
I4197
sS'road'
p2276
I2973
sS'tape'
p2277
I1031
sS'Information'
p2278
I2203
sS'8.50'
p2279
I1727
sS'outlook'
p2280
I956
sS'8.55'
p2281
I959
sS'No'
p2282
I537
sS'coupon'
p2283
I2974
sS'instruments'
p2284
I4198
sS'image'
p2285
I538
sS'signing'
p2286
I3720
sS'authorities'
p2287
I2684
sS'involvement'
p2288
I1729
sS'determine'
p2289
I972
sS'operator'
p2290
I1730
sS'valuable'
p2291
I1688
sS'your'
p2292
I1731
sS'Lease'
p2293
I539
sS'fast'
p2294
I2804
sS'Moon'
p2295
I3008
sS'her'
p2296
I540
sS'Though'
p2297
I2976
sS'strictly'
p2298
I4202
sS'there'
p2299
I4203
sS'styling'
p2300
I2977
sS'strict'
p2301
I4205
sS'Infiniti'
p2302
I4206
sS'low'
p2303
I1735
sS'sealed'
p2304
I541
sS'alleges'
p2305
I4207
sS'fastball'
p2306
I1003
sS'combined'
p2307
I2978
sS'revamped'
p2308
I2055
sS'complete'
p2309
I543
sS'enough'
p2310
I2882
sS'signs'
p2311
I643
sS'Vosges'
p2312
I545
sS'pleased'
p2313
I4655
sS'delayed'
p2314
I1737
sS'principles'
p2315
I2483
sS'brain'
p2316
I4665
sS'Broberg'
p2317
I4294
sS'elimination'
p2318
I547
sS'technologies'
p2319
I548
sS'trying'
p2320
I1738
sS'with'
p2321
I549
sS','
p2322
I2464
sS'buying'
p2323
I550
sS'pull'
p2324
I551
sS'hire'
p2325
I1739
sS'fraud'
p2326
I1740
sS'arranged'
p2327
I2982
sS'co-chief'
p2328
I2983
sS'default'
p2329
I1041
sS'House'
p2330
I552
sS'5/8'
p2331
I1741
sS'Bull'
p2332
I2333
sS'Plant'
p2333
I2914
sS'Marston'
p2334
I1742
sS'Eddie'
p2335
I2984
sS'politically'
p2336
I553
sS'advantage'
p2337
I3938
sS'agree'
p2338
I554
sS'detailed'
p2339
I555
sS'gone'
p2340
I556
sS'required'
p2341
I2058
sS'Guber'
p2342
I2981
sS'ad'
p2343
I557
sS'Alamos'
p2344
I2985
sS'totaling'
p2345
I4213
sS'moved'
p2346
I1744
sS'Airlines'
p2347
I560
sS'watches'
p2348
I561
sS'an'
p2349
I562
sS'alarm'
p2350
I854
sS'as'
p2351
I563
sS'Moonies'
p2352
I3522
sS'daily'
p2353
I2688
sS'file'
p2354
I2990
sS'advertisers'
p2355
I657
sS'99.1875'
p2356
I4214
sS'politics'
p2357
I4215
sS'himself'
p2358
I2030
sS'moves'
p2359
I1746
sS'operation'
p2360
I658
sS'fill'
p2361
I2991
sS'4.5'
p2362
I4217
sS'again'
p2363
I2992
sS'4.7'
p2364
I1077
sS'Jake'
p2365
I1748
sS'receive'
p2366
I908
sS'4.3'
p2367
I4220
sS'4.2'
p2368
I4221
sS'personnel'
p2369
I2993
sS'hybrid'
p2370
I2994
sS'Second'
p2371
I2689
sS'abolish'
p2372
I567
sS'field'
p2373
I2996
sS'narrowing'
p2374
I4223
sS'KGB'
p2375
I2027
sS'Atlantic'
p2376
I568
sS'Drilling'
p2377
I2997
sS'rioting'
p2378
I1072
sS'Stamford'
p2379
I871
sS'you'
p2380
I1749
sS'Law'
p2381
I1093
sS'Johnstown'
p2382
I4227
sS'poor'
p2383
I1751
sS'Great'
p2384
I1752
sS'blessing'
p2385
I4129
sS'Alex'
p2386
I569
sS'separate'
p2387
I4229
sS'12.4'
p2388
I2874
sS'Employees'
p2389
I3578
sS'Paramount'
p2390
I3064
sS'reached'
p2391
I570
sS'attributed'
p2392
I3513
sS'includes'
p2393
I4230
sS'8.04'
p2394
I3768
sS'important'
p2395
I2999
sS'accounts'
p2396
I971
sS'brands'
p2397
I3000
sS'creditor'
p2398
I2922
sS'stocks'
p2399
I4234
sS'fiscal'
p2400
I1124
sS'observers'
p2401
I1663
sS'Major'
p2402
I3002
sS'US$'
p2403
I3003
sS'Mexican'
p2404
I1755
sS'arsenals'
p2405
I4235
sS'calls'
p2406
I4236
sS'refinanced'
p2407
I4237
sS'Tropics'
p2408
I1756
sS'tricks'
p2409
I572
sS'principal'
p2410
I1028
sS'posts'
p2411
I3942
sS'directors'
p2412
I4239
sS'Street'
p2413
I573
sS'Year'
p2414
I3005
sS'overseas'
p2415
I1757
sS'Warsaw'
p2416
I2067
sS'neurosurgeon'
p2417
I2830
sS'wastewater'
p2418
I574
sS'Analysts'
p2419
I489
sS'Canada'
p2420
I1332
sS'all'
p2421
I1161
sS'since'
p2422
I1857
sS'9/16'
p2423
I3633
sS'founder'
p2424
I3006
sS'caused'
p2425
I577
sS'Workers'
p2426
I3153
sS'CDs'
p2427
I4697
sS'dollar'
p2428
I3007
sS'month'
p2429
I1758
sS'founded'
p2430
I3009
sS'balloon'
p2431
I2292
sS'deadline'
p2432
I1759
sS'Take'
p2433
I1760
sS'cooperative'
p2434
I3010
sS'talks'
p2435
I3011
sS'follow'
p2436
I4240
sS'settlement'
p2437
I4241
sS'decisions'
p2438
I4242
sS'reluctant'
p2439
I3012
sS'William'
p2440
I3013
sS'number'
p2441
I675
sS'referring'
p2442
I1763
sS'jewelry'
p2443
I292
sS'opportunities'
p2444
I4244
sS'Trade'
p2445
I2969
sS'insects'
p2446
I3032
sS'to'
p2447
I580
sS'program'
p2448
I4245
sS'dairy'
p2449
I4246
sS'14'
p2450
I2819
sS'safety'
p2451
I1859
sS'lawmakers'
p2452
I4247
sS'PRIME'
p2453
I3014
sS'activities'
p2454
I4248
sS'global'
p2455
I1468
sS'premium'
p2456
I3015
sS'song'
p2457
I4250
sS'very'
p2458
I1765
sS'Alaska'
p2459
I4252
sS'induce'
p2460
I1775
sS'results'
p2461
I874
sS'Erwin'
p2462
I4254
sS'blockade'
p2463
I582
sS'worst'
p2464
I4255
sS'decide'
p2465
I1767
sS'got'
p2466
I3726
sS'existing'
p2467
I875
sS'condition'
p2468
I1137
sS'Cockburn'
p2469
I583
sS'delivery'
p2470
I1125
sS'`'
p2471
I3711
sS'unlike'
p2472
I4702
sS'cable'
p2473
I584
sS'--'
p2474
I1768
sS'grand-jury'
p2475
I3017
sS'list'
p2476
I4257
sS'joined'
p2477
I585
sS'large'
p2478
I586
sS'small'
p2479
I587
sS'economically'
p2480
I3018
sS'Seidman'
p2481
I1769
sS'3.18'
p2482
I1770
sS'owned'
p2483
I990
sS'triple-A'
p2484
I4209
sS'Nomura'
p2485
I588
sS'300ZX'
p2486
I2285
sS'penalties'
p2487
I3746
sS'193'
p2488
I589
sS'past'
p2489
I590
sS'go'
p2490
I2070
sS'Only'
p2491
I3019
sS'design'
p2492
I4259
sS'lawyer'
p2493
I3020
sS'pass'
p2494
I591
sS'further'
p2495
I3760
sS'East'
p2496
I4261
sS'investment'
p2497
I592
sS'10.48'
p2498
I3021
sS'HUD'
p2499
I1771
sS'will'
p2500
I4704
sS'what'
p2501
I4262
sS'Korea'
p2502
I1772
sS'stood'
p2503
I3022
sS'consumers'
p2504
I1773
sS'indicated'
p2505
I1206
sS'investing'
p2506
I1307
sS'deeply'
p2507
I1308
sS'Elanco'
p2508
I1774
sS'judiciary'
p2509
I3565
sS'version'
p2510
I4263
sS'scientists'
p2511
I594
sS'certificates'
p2512
I1776
sS'learned'
p2513
I1777
sS'seemed'
p2514
I879
sS'public'
p2515
I3023
sS'contrast'
p2516
I596
sS'movement'
p2517
I3024
sS'turmoil'
p2518
I1778
sS'full'
p2519
I597
sS'estate'
p2520
I3688
sS'ranged'
p2521
I3025
sS'Alltel'
p2522
I1779
sS'Finland'
p2523
I598
sS'component'
p2524
I3026
sS'fueling'
p2525
I3186
sS'answers'
p2526
I1780
sS'prepayment'
p2527
I4293
sS'hours'
p2528
I599
sS'Arthur'
p2529
I3027
sS'anticipation'
p2530
I2696
sS'operating'
p2531
I3028
sS'situation'
p2532
I496
sS'Nahas'
p2533
I1783
sS'soon'
p2534
I1826
sS'buy'
p2535
I3605
sS'ascending'
p2536
I2494
sS'Spencer'
p2537
I4602
sS'thrift'
p2538
I4264
sS'Borden'
p2539
I1785
sS'sensory'
p2540
I109
sS'900'
p2541
I3029
sS'prosecutors'
p2542
I3030
sS'naval'
p2543
I4265
sS'ahead'
p2544
I1786
sS'extraordinary'
p2545
I3114
sS'else'
p2546
I1952
sS'margin'
p2547
I2909
sS'inspired'
p2548
I1787
sS'losses'
p2549
I1788
sS'allows'
p2550
I4266
sS'qualify'
p2551
I666
sS'Dole'
p2552
I1789
sS'Any'
p2553
I2287
sS'prior'
p2554
I601
sS'Keenan'
p2555
I3828
sS'Cranston-Mitchell'
p2556
I4267
sS'advertising'
p2557
I1382
sS'published'
p2558
I3031
sS'action'
p2559
I603
sS'narrow'
p2560
I3837
sS'options'
p2561
I4268
sS'point'
p2562
I3216
sS'sticking'
p2563
I4269
sS'arms-control'
p2564
I4270
sS'via'
p2565
I604
sS'followed'
p2566
I2786
sS'family'
p2567
I1791
sS'<root>'
p2568
I2
sS'Stanza'
p2569
I2986
sS'enactment'
p2570
I3850
sS'10,000'
p2571
I2439
sS'put'
p2572
I985
sS'aimed'
p2573
I1792
sS'trained'
p2574
I1793
sS'Standard'
p2575
I3933
sS'establish'
p2576
I3033
sS'select'
p2577
I605
sS'Europe'
p2578
I3034
sS'shareholders'
p2579
I3035
sS'wanted'
p2580
I3732
sS'eye'
p2581
I3036
sS'takes'
p2582
I1795
sS'presence'
p2583
I3889
sS'Hewlett-Packard'
p2584
I606
sS'Egg'
p2585
I607
sS'one-day'
p2586
I1796
sS'acrimony'
p2587
I1540
sS'two'
p2588
I3037
sS'N.J.'
p2589
I2424
sS'Investments'
p2590
I1870
sS'Corp'
p2591
I3038
sS'Kirgizia'
p2592
I1797
sS'familiar'
p2593
I1036
sS'libel'
p2594
I3039
sS'taken'
p2595
I1798
sS'promoting'
p2596
I3936
sS'markets'
p2597
I4271
sS'Conlon'
p2598
I610
sS'minor'
p2599
I4272
sS'more'
p2600
I611
sS'Manville'
p2601
I4273
sS'lowering'
p2602
I1800
sS'door'
p2603
I613
sS'LTV'
p2604
I3040
sS'tobacco'
p2605
I2245
sS'Kennedy'
p2606
I3041
sS'FEDERAL'
p2607
I3042
sS'division'
p2608
I1475
sS'Philippines'
p2609
I3916
sS'LaFalce'
p2610
I615
sS'telephone'
p2611
I4137
sS'Banking'
p2612
I1462
sS'American'
p2613
I3922
sS'controlling'
p2614
I3043
sS'stick'
p2615
I4277
sS'broke'
p2616
I1803
sS'particular'
p2617
I3044
sS'known'
p2618
I1469
sS'retained'
p2619
I670
sS'mellow'
p2620
I4279
sS'factories'
p2621
I1804
sS'producing'
p2622
I1473
sS'town'
p2623
I3046
sS'none'
p2624
I3047
sS'Now'
p2625
I2073
sS'hour'
p2626
I3048
sS'faced'
p2627
I3800
sS'Zell'
p2628
I4280
sS'other'
p2629
I4735
sS'remain'
p2630
I3049
sS'del'
p2631
I3050
sS'budgets'
p2632
I1806
sS'forward-rate'
p2633
I4281
sS'pioneered'
p2634
I3959
sS'strategies'
p2635
I3052
sS'male'
p2636
I619
sS'Berthold'
p2637
I2499
sS'Inc'
p2638
I4282
sS'Conference'
p2639
I620
sS'purchases'
p2640
I3053
sS'Retirement'
p2641
I3054
sS'prompt'
p2642
I621
sS'Yale'
p2643
I2757
sS'adviser'
p2644
I1808
sS'lives'
p2645
I1953
sS'Ariz.'
p2646
I2290
sS'share'
p2647
I3055
sS'accept'
p2648
I623
sS'states'
p2649
I624
sS'pushed'
p2650
I1809
sS'Lyphomed'
p2651
I4283
sS'way'
p2652
I4047
sS'protects'
p2653
I4284
sS'purchased'
p2654
I3058
sS'sense'
p2655
I626
sS'sharp'
p2656
I3059
sS'Calif'
p2657
I3060
sS'chores'
p2658
I4285
sS'maturing'
p2659
I3062
sS'needs'
p2660
I3063
sS'Parliament'
p2661
I4286
sS'5.4'
p2662
I4287
sS'Raymond'
p2663
I3065
sS'rather'
p2664
I4288
sS'plans'
p2665
I4013
sS'breaking'
p2666
I4289
sS'United'
p2667
I4160
sS'surpassed'
p2668
I1811
sS'Sales'
p2669
I4425
sS'stemming'
p2670
I4291
sS'earnings'
p2671
I628
sS'speeding'
p2672
I4292
sS'businessmen'
p2673
I1873
sS'Hanover'
p2674
I629
sS'Television'
p2675
I1563
sS'tried'
p2676
I1568
sS'Schneider'
p2677
I4020
sS'minimum'
p2678
I3057
sS'different'
p2679
I3069
sS'Foreign'
p2680
I4295
sS'reflect'
p2681
I4296
sS'retirement'
p2682
I1981
sS'tries'
p2683
I1813
sS'Nebraska'
p2684
I3070
sS'coming'
p2685
I3071
sS'Swiss'
p2686
I634
sS'response'
p2687
I3835
sS'nonetheless'
p2688
I1141
sS'a'
p2689
I1815
sS'changes'
p2690
I3667
sS'short'
p2691
I4298
sS'Mexico'
p2692
I1817
sS'overnight'
p2693
I1818
sS'Deep'
p2694
I1819
sS'Haag'
p2695
I3123
sS'renewing'
p2696
I1820
sS'broadcasting'
p2697
I636
sS'ego'
p2698
I1821
sS'Democrats'
p2699
I4300
sS'fundamental'
p2700
I637
sS'pay'
p2701
I2915
sS'banks'
p2702
I1822
sS'lasting'
p2703
I3719
sS'dream'
p2704
I1620
sS'privileges'
p2705
I4712
sS'turnover'
p2706
I4302
sS'greats'
p2707
I639
sS'What'
p2708
I3074
sS'help'
p2709
I1824
sS'developed'
p2710
I4303
sS'Nikko'
p2711
I4304
sS'trade'
p2712
I640
sS'held'
p2713
I1827
sS'attitude'
p2714
I641
sS'paper'
p2715
I642
sS'through'
p2716
I3075
sS'committee'
p2717
I1828
sS'committed'
p2718
I1640
sS'documents'
p2719
I1011
sS'clarinet'
p2720
I1829
sS'Edelman'
p2721
I644
sS'agrees'
p2722
I2353
sS'trouble'
p2723
I1480
sS'Texas'
p2724
I3076
sS'24'
p2725
I3077
sS'25'
p2726
I3078
sS'style'
p2727
I4305
sS'27'
p2728
I3080
sS'20'
p2729
I3081
sS'21'
p2730
I3082
sS'22'
p2731
I3083
sS'23'
p2732
I3084
sS'Fiat'
p2733
I3185
sS'sale'
p2734
I2677
sS'28'
p2735
I3085
sS'29'
p2736
I3086
sS'actually'
p2737
I1831
sS'late'
p2738
I4121
sS'Phelan'
p2739
I1832
sS'Marietta'
p2740
I3087
sS'systems'
p2741
I1662
sS'annual'
p2742
I3212
sS'peanuts'
p2743
I1834
sS'Brussels'
p2744
I647
sS'might'
p2745
I4307
sS'lire'
p2746
I1835
sS'arguments'
p2747
I2917
sS'tentatively'
p2748
I649
sS'good'
p2749
I3088
sS'return'
p2750
I4308
sS'seeking'
p2751
I3090
sS'food'
p2752
I1838
sS'delivered'
p2753
I2005
sS'Michael'
p2754
I650
sS'Bay'
p2755
I3091
sS'resigned'
p2756
I1839
sS'anticipates'
p2757
I1841
sS'formulating'
p2758
I3092
sS'Senior'
p2759
I1842
sS'hearing'
p2760
I3738
sS'complain'
p2761
I3093
sS'bigger'
p2762
I4310
sS'Amendment'
p2763
I4173
sS'easily'
p2764
I3095
sS'stopper'
p2765
I1844
sS'stated'
p2766
I622
sS'Investors'
p2767
I2079
sS'adjacent'
p2768
I3693
sS'occasions'
p2769
I1845
sS'Greene'
p2770
I2409
sS'Telephone'
p2771
I4311
sS'someone'
p2772
I4290
sS'habits'
p2773
I3096
sS'stopped'
p2774
I1848
sS'Council'
p2775
I1849
sS'letting'
p2776
I178
sS'McDonnell'
p2777
I3097
sS'repeating'
p2778
I3098
sS'SFE'
p2779
I1850
sS'characterized'
p2780
I4312
sS'investigators'
p2781
I653
sS'heavy'
p2782
I1852
sS'week'
p2783
I4143
sS'harm'
p2784
I3099
sS'everyone'
p2785
I3100
sS'fail'
p2786
I171
sS'Marcus'
p2787
I3543
sS'generation'
p2788
I4313
sS'house'
p2789
I3101
sS'energy'
p2790
I3102
sS'hard'
p2791
I3103
sS'reduce'
p2792
I655
sS'idea'
p2793
I3104
sS'slowdown'
p2794
I656
sS'high-production'
p2795
I4144
sS'expect'
p2796
I4314
sS'seniority'
p2797
I3105
sS'Panisse'
p2798
I4216
sS'standards'
p2799
I3943
sS'event'
p2800
I1854
sS'really'
p2801
I659
sS'leave'
p2802
I311
sS'initiatives'
p2803
I3107
sS'uninvited'
p2804
I73
sS'funding'
p2805
I4233
sS'item'
p2806
I2714
sS'walked'
p2807
I870
sS'blue-chip'
p2808
I1856
sS'Samuel'
p2809
I4316
sS'temporary'
p2810
I1972
sS'projected'
p2811
I3109
sS'research'
p2812
I660
sS'1.75'
p2813
I3110
sS'participants'
p2814
I4243
sS'health'
p2815
I4317
sS'longtime'
p2816
I3111
sS'7'
p2817
I1860
sS'Prudential-Bache'
p2818
I1861
sS'flashes'
p2819
I4685
sS'1.78'
p2820
I3112
sS'Class'
p2821
I661
sS'cost-cutting'
p2822
I4318
sS'IRS'
p2823
I507
sS'disobedience'
p2824
I3113
sS'belief'
p2825
I662
sS'risen'
p2826
I663
sS'grand'
p2827
I1969
sS'upon'
p2828
I1076
sS'Plaza'
p2829
I1863
sS'According'
p2830
I1864
sS'depository'
p2831
I313
sS'reason'
p2832
I1866
sS'base'
p2833
I1867
sS'imperial'
p2834
I2350
sS'members'
p2835
I3115
sS'ask'
p2836
I1868
sS'heads'
p2837
I677
sS'rises'
p2838
I667
sS'beginning'
p2839
I3117
sS'generate'
p2840
I4321
sS'Researchers'
p2841
I1871
sS'director'
p2842
I633
sS'owners'
p2843
I669
sS'benefits'
p2844
I4278
sS'Congress'
p2845
I3740
sS'People'
p2846
I4322
sS'seasonal'
p2847
I3777
sS'Boston'
p2848
I1872
sS'computers'
p2849
I3119
sS'first-half'
p2850
I4148
sS'Debate'
p2851
I3945
sS'called'
p2852
I4506
sS'PAPER'
p2853
I3120
sS'Expect'
p2854
I4323
sS'threat'
p2855
I1812
sS'scheduled'
p2856
I4172
sS'Lexus'
p2857
I1814
sS'pilots'
p2858
I1467
sS'top'
p2859
I3741
sS'feed'
p2860
I4324
sS'Turkey'
p2861
I3353
sS'embraces'
p2862
I1649
sS'amounted'
p2863
I2651
sS'slipped'
p2864
I673
sS'feel'
p2865
I4325
sS'mistakenly'
p2866
I3124
sS'reflected'
p2867
I1874
sS'fancy'
p2868
I1840
sS'whom'
p2869
I4417
sS'well-known'
p2870
I1843
sS'unexpected'
p2871
I2716
sS'done'
p2872
I3125
sS'airborne'
p2873
I1876
sS'changing'
p2874
I4151
sS'slower'
p2875
I4328
sS'wages'
p2876
I3126
sS'speedometer'
p2877
I4329
sS'contended'
p2878
I676
sS'passes'
p2879
I4330
sS'horse'
p2880
I1875
sS'Transportation'
p2881
I4320
sS'Medco'
p2882
I3128
sS'become'
p2883
I1094
sS'leading'
p2884
I4332
sS'WPP'
p2885
I3129
sS'least'
p2886
I3130
sS'lobby'
p2887
I4720
sS'180'
p2888
I3131
sS'station'
p2889
I1877
sS'difficulties'
p2890
I3505
sS'passed'
p2891
I4334
sS'dealing'
p2892
I2717
sS'Belgium'
p2893
I3133
sS'Matthews'
p2894
I4336
sS'188'
p2895
I3135
sS'hundred'
p2896
I1879
sS'southern'
p2897
I4615
sS'voted'
p2898
I1168
sS'store'
p2899
I1885
sS'too'
p2900
I3744
sS'figures'
p2901
I1064
sS'noted'
p2902
I4536
sS'selling'
p2903
I1880
sS'statement'
p2904
I3132
sS'relationship'
p2905
I679
sS'behind'
p2906
I2855
sS'Delta'
p2907
I1878
sS'appreciation'
p2908
I680
sS'part'
p2909
I3138
sS'demonstrations'
p2910
I1703
sS'doctors'
p2911
I3140
sS'bonds'
p2912
I1035
sS'believe'
p2913
I3141
sS'convinced'
p2914
I4337
sS'percentage'
p2915
I3745
sS'869'
p2916
I3142
sS'king'
p2917
I4338
sS'kind'
p2918
I4339
sS'scheme'
p2919
I1882
sS'double'
p2920
I4340
sS'largely'
p2921
I2926
sS'finances'
p2922
I4335
sS'youth'
p2923
I3143
sS'determined'
p2924
I683
sS'marriage'
p2925
I684
sS'supposed'
p2926
I3144
sS'toward'
p2927
I1887
sS'ousted'
p2928
I1888
sS'Is'
p2929
I4152
sS'subsidies'
p2930
I1889
sS'procedural'
p2931
I1890
sS'normal'
p2932
I2838
sS'obstacles'
p2933
I4342
sS'businesslike'
p2934
I3146
sS'strengthen'
p2935
I4344
sS'constitutional'
p2936
I1681
sS'Peace'
p2937
I1892
sS'ceiling'
p2938
I3748
sS'Douglas'
p2939
I1893
sS'It'
p2940
I4153
sS'licenses'
p2941
I894
sS'substantial'
p2942
I1894
sS'Achenbaum'
p2943
I686
sS'Fortney'
p2944
I1895
sS'Equity'
p2945
I687
sS'Posted'
p2946
I3542
sS'Industrial'
p2947
I2357
sS'organs'
p2948
I1896
sS'orders'
p2949
I3147
sS'vulnerable'
p2950
I1968
sS'option'
p2951
I1160
sS'sell'
p2952
I688
sS'thought'
p2953
I3552
sS'collateralized'
p2954
I3148
sS'20,000'
p2955
I2176
sS'built'
p2956
I3149
sS'evasion'
p2957
I1897
sS'something'
p2958
I4577
sS'trip'
p2959
I3908
sS'Cos.'
p2960
I4459
sS'Price'
p2961
I1899
sS'officers'
p2962
I1900
sS'client'
p2963
I1392
sS'Scientists'
p2964
I3594
sS'also'
p2965
I689
sS'appellate'
p2966
I3154
sS'Drexel'
p2967
I1988
sS'build'
p2968
I3155
sS'Kim'
p2969
I3156
sS'finding'
p2970
I4348
sS'restrictions'
p2971
I1061
sS'With'
p2972
I1901
sS'Germans'
p2973
I4349
sS'seized'
p2974
I691
sS'play'
p2975
I692
sS'added'
p2976
I4350
sS'critics'
p2977
I2172
sS'semiannual'
p2978
I1846
sS'eggs'
p2979
I3158
sS'measures'
p2980
I4351
sS'reach'
p2981
I4352
sS'Hawaii'
p2982
I3159
sS'me'
p2983
I3683
sS'76'
p2984
I4353
sS'75'
p2985
I4354
sS'hired'
p2986
I1902
sS'shareholder'
p2987
I4355
sS'plan'
p2988
I693
sS'significant'
p2989
I3162
sS'70'
p2990
I4357
sS'nothing'
p2991
I4358
sS'The'
p2992
I1904
sS'Petroleos'
p2993
I694
sS'approved'
p2994
I1905
sS'soared'
p2995
I4360
sS'stands'
p2996
I3955
sS'Mehl'
p2997
I4362
sS'dealers'
p2998
I4363
sS'sizable'
p2999
I3137
sS'Institutional'
p3000
I1907
sS'performances'
p3001
I1908
sS'45-year-old'
p3002
I4364
sS'sometimes'
p3003
I695
sS'cover'
p3004
I696
sS'shortly'
p3005
I3838
sS'drawing'
p3006
I1083
sS'traditional'
p3007
I4365
sS'charitable'
p3008
I3167
sS'three-month'
p3009
I697
sS'Lambert'
p3010
I3813
sS'1/2'
p3011
I444
sS'British'
p3012
I2139
sS'justify'
p3013
I698
sS'Robinson'
p3014
I3168
sS'institutions'
p3015
I4366
sS'favorable'
p3016
I3139
sS'sector'
p3017
I3170
sS'stalked'
p3018
I1911
sS'66'
p3019
I4118
sS'golf'
p3020
I700
sS'rebels'
p3021
I3172
sS'gold'
p3022
I701
sS'Norris'
p3023
I1912
sS'obligations'
p3024
I3173
sS'commissions'
p3025
I3174
sS'league'
p3026
I2280
sS'judges'
p3027
I2538
sS'pollinate'
p3028
I3274
sS'Majority'
p3029
I4367
sS'session'
p3030
I702
sS'businesses'
p3031
I3175
sS'Hill'
p3032
I3176
sS'stores'
p3033
I3554
sS'Keating'
p3034
I4368
sS'Lilly'
p3035
I704
sS'find'
p3036
I3177
sS'impact'
p3037
I705
sS'cell'
p3038
I2088
sS'indicator'
p3039
I706
sS'justice'
p3040
I1913
sS'writer'
p3041
I707
sS'distributed'
p3042
I3181
sS'French'
p3043
I1914
sS'penalty'
p3044
I4370
sS'being'
p3045
I510
sS'flights'
p3046
I1915
sS'rubles'
p3047
I4371
sS'generators'
p3048
I3182
sS'condom'
p3049
I709
sS'money'
p3050
I2934
sS'override'
p3051
I3183
sS'Lyonnais'
p3052
I1917
sS'appealing'
p3053
I1004
sS'sure'
p3054
I4067
sS'giants'
p3055
I711
sS'his'
p3056
I4372
sS'hit'
p3057
I2134
sS'gains'
p3058
I4374
sS'meanwhile'
p3059
I2135
sS'Bowater'
p3060
I2137
sS'banned'
p3061
I4586
sS'flowing'
p3062
I899
sS'Jersey'
p3063
I1483
sS'financing'
p3064
I1881
sS'mortgage-backed'
p3065
I4375
sS'advocates'
p3066
I2140
sS'While'
p3067
I1918
sS'Cilcorp'
p3068
I2510
sS'5,000'
p3069
I2142
sS'actions'
p3070
I712
sS'closely'
p3071
I713
sS'competing'
p3072
I1921
sS'1.80'
p3073
I3929
sS'NAM'
p3074
I2623
sS'running'
p3075
I2921
sS'him'
p3076
I4377
sS'merchandise'
p3077
I3192
sS'Maxima'
p3078
I1924
sS'grievances'
p3079
I4378
sS'resolve'
p3080
I3194
sS'Gant'
p3081
I3195
sS'recycled'
p3082
I3196
sS'debt-equity'
p3083
I716
sS'Kong'
p3084
I4085
sS'Mexicans'
p3085
I512
sS'remove'
p3086
I3197
sS'six-month'
p3087
I3198
sS'banking'
p3088
I717
sS'J.'
p3089
I4379
sS'common'
p3090
I3199
sS'activity'
p3091
I4380
sS'river'
p3092
I718
sS'wrote'
p3093
I4381
sS'rumored'
p3094
I719
sS'set'
p3095
I720
sS'could'
p3096
I984
sS'For'
p3097
I721
sS'Nov.'
p3098
I3957
sS'throwing'
p3099
I1926
sS'declines'
p3100
I4383
sS'opposing'
p3101
I931
sS'activists'
p3102
I722
sS'Rosen'
p3103
I1927
sS'instituted'
p3104
I723
sS'France'
p3105
I1928
sS'Enfield'
p3106
I4164
sS'see'
p3107
I724
sS'professional'
p3108
I1623
sS'are'
p3109
I4385
sS'sea'
p3110
I4171
sS'tender'
p3111
I3202
sS'transportation'
p3112
I2725
sS'Fraser'
p3113
I2432
sS'2.6'
p3114
I2213
sS'2.5'
p3115
I2216
sS'feared'
p3116
I3203
sS'regulator'
p3117
I4445
sS'#'
p3118
I725
sS'probable'
p3119
I1931
sS'Critics'
p3120
I4390
sS'guinea'
p3121
I4648
sS'attracting'
p3122
I2715
sS'currently'
p3123
I726
sS'burner'
p3124
I3204
sS'case'
p3125
I4133
sS'pickup'
p3126
I727
sS'Officials'
p3127
I1884
sS'various'
p3128
I3509
sS'electrical'
p3129
I734
sS'downturn'
p3130
I4392
sS'conditions'
p3131
I1935
sS'corruption'
p3132
I4393
sS'favor'
p3133
I4079
sS'risks'
p3134
I4341
sS'available'
p3135
I729
sS'Cambria'
p3136
I4391
sS'recently'
p3137
I4394
sS'creating'
p3138
I4395
sS'missing'
p3139
I1936
sS'targeted'
p3140
I730
sS'dividends'
p3141
I3206
sS'Transgenic'
p3142
I2259
sS'sole'
p3143
I2261
sS'Florida'
p3144
I731
sS'general-purpose'
p3145
I4399
sS'incident'
p3146
I732
sS'ranked'
p3147
I1939
sS'Hollander'
p3148
I3853
sS'turning'
p3149
I2493
sS'UniFirst'
p3150
I3209
sS'African'
p3151
I4402
sS'franchise'
p3152
I4403
sS'dividend'
p3153
I733
sS'Japanese'
p3154
I3702
sS'remaining'
p3155
I1990
sS'official'
p3156
I2249
sS'AND'
p3157
I4404
sS'both'
p3158
I1940
sS'full-time'
p3159
I4693
sS'enables'
p3160
I2514
sS'improved'
p3161
I4698
sS'license'
p3162
I4405
sS'restaurant'
p3163
I3211
sS'bidder'
p3164
I2515
sS'barely'
p3165
I4708
sS'second-largest'
p3166
I1942
sS'Bloedel'
p3167
I3213
sS'foreign'
p3168
I3214
sS'Steve'
p3169
I1943
sS'sensitive'
p3170
I1944
sS'1.65'
p3171
I738
sS'became'
p3172
I4406
sS'rose'
p3173
I4166
sS'long-term'
p3174
I739
sS'let'
p3175
I905
sS'McEnaney'
p3176
I740
sS'El'
p3177
I3118
sS'approve'
p3178
I741
sS'Yet'
p3179
I3215
sS'Cotton'
p3180
I4407
sS'insurance'
p3181
I3106
sS'flies'
p3182
I4408
sS'Friday'
p3183
I3559
sS'headed'
p3184
I1945
sS'simple'
p3185
I3217
sS'loan'
p3186
I742
sS'S-Cargo'
p3187
I4410
sS'community'
p3188
I743
sS'Eduard'
p3189
I1088
sS'Dallas'
p3190
I3218
sS'simply'
p3191
I3219
sS'church'
p3192
I745
sS'rural'
p3193
I1157
sS'mission'
p3194
I23
sS'expensive'
p3195
I3220
sS'headaches'
p3196
I3221
sS'bolster'
p3197
I4411
sS'decline'
p3198
I4412
sS'Khmer'
p3199
I3222
sS'described'
p3200
I1947
sS'raise'
p3201
I3223
sS'duo'
p3202
I4413
sS'monthly'
p3203
I747
sS'defunct'
p3204
I3210
sS'create'
p3205
I3224
sS'outstanding'
p3206
I4343
sS'political'
p3207
I4414
sS'due'
p3208
I4415
sS'strategy'
p3209
I4416
sS'rivals'
p3210
I3225
sS'Protection'
p3211
I1949
sS'Jennison'
p3212
I748
sS'superconductor'
p3213
I2729
sS'Carl'
p3214
I4777
sS'God'
p3215
I1891
sS'Bromley'
p3216
I544
sS'Bancorp'
p3217
I3227
sS'woke'
p3218
I4418
sS'4'
p3219
I2937
sS'firm'
p3220
I749
sS'dialogue'
p3221
I1606
sS'partly'
p3222
I1951
sS'sending'
p3223
I1501
sS'fire'
p3224
I750
sS'gas'
p3225
I3228
sS'precision'
p3226
I4419
sS'deter'
p3227
I2376
sS'fund'
p3228
I752
sS'UNESCO'
p3229
I3987
sS'38'
p3230
I753
sS'understand'
p3231
I3231
sS'specifically'
p3232
I409
sS'bidding'
p3233
I1954
sS'demand'
p3234
I4421
sS'prices'
p3235
I3232
sS'resisted'
p3236
I3233
sS'despite'
p3237
I3786
sS'second-quarter'
p3238
I1955
sS'plants'
p3239
I4422
sS'highest'
p3240
I2355
sS'replaces'
p3241
I3234
sS'Old'
p3242
I758
sS'look'
p3243
I1957
sS'Sidley'
p3244
I1626
sS'solid'
p3245
I3235
sS'judicial'
p3246
I759
sS'straight'
p3247
I760
sS'bill'
p3248
I3236
sS'elections'
p3249
I3237
sS'governor'
p3250
I1958
sS'Agency'
p3251
I153
sS'pace'
p3252
I1959
sS'while'
p3253
I1960
sS'3.35'
p3254
I2403
sS'match'
p3255
I1961
sS'Likewise'
p3256
I2096
sS'fun'
p3257
I3239
sS'Energy'
p3258
I910
sS'Advancing'
p3259
I4426
sS'Industries'
p3260
I1962
sS'City'
p3261
I4427
sS'19.7'
p3262
I4428
sS'Italy'
p3263
I4429
sS'Sumitomo'
p3264
I4430
sS'century'
p3265
I3241
sS'cents'
p3266
I3242
sS'Fingers'
p3267
I1965
sS'evident'
p3268
I1129
sS'Back'
p3269
I2097
sS'disappointing'
p3270
I4431
sS'obstacle'
p3271
I4432
sS'Bach'
p3272
I2098
sS'seen'
p3273
I2522
sS'Pertschuk'
p3274
I769
sS'34'
p3275
I770
sS'examiners'
p3276
I4433
sS'chase'
p3277
I74
sS'lengthy'
p3278
I4435
sS'Chicago-based'
p3279
I4436
sS'ample'
p3280
I2315
sS'anymore'
p3281
I1966
sS'grant'
p3282
I1967
sS'Penney'
p3283
I4437
sS'rosy'
p3284
I4438
sS'rules'
p3285
I1698
sS'virtually'
p3286
I773
sS'widely'
p3287
I4439
sS'rejoin'
p3288
I516
sS'9'
p3289
I4441
sS'products'
p3290
I2099
sS'advise'
p3291
I4442
sS'conflict'
p3292
I1970
sS'higher'
p3293
I4443
sS'development'
p3294
I3245
sS'About'
p3295
I4444
sS'Camp'
p3296
I4175
sS'lawyers'
p3297
I2486
sS'Then'
p3298
I135
sS'Asia-Pacific'
p3299
I3246
sS'defeat'
p3300
I777
sS'friends'
p3301
I2377
sS'yesterday'
p3302
I3247
sS'flows'
p3303
I4447
sS'alert'
p3304
I778
sS'Itel'
p3305
I4448
sS'moment'
p3306
I3248
sS'J.C.'
p3307
I1974
sS'arrived'
p3308
I2500
sS'purpose'
p3309
I3249
sS'robust'
p3310
I4451
sS'{'
p3311
I780
sS'recent'
p3312
I781
sS'Ortega'
p3313
I4176
sS'lower'
p3314
I4452
sS'turnaround'
p3315
I898
sS'Distance'
p3316
I3721
sS'Power'
p3317
I3150
sS'older'
p3318
I1977
sS'Source'
p3319
I1048
sS'Miller'
p3320
I4453
sS'alleging'
p3321
I783
sS'anybody'
p3322
I4454
sS'without'
p3323
I4154
sS'person'
p3324
I784
sS'priced'
p3325
I3229
sS'edge'
p3326
I4457
sS'services'
p3327
I3163
sS'machinery'
p3328
I4458
sS'CBS'
p3329
I3779
sS'organization'
p3330
I144
sS'clearance'
p3331
I786
sS'rates'
p3332
I3134
sS'spend'
p3333
I3253
sS'preference'
p3334
I3254
sS'pollen'
p3335
I4460
sS'grievance'
p3336
I4461
sS'one-year'
p3337
I3255
sS'junk-bond'
p3338
I3256
sS'-'
p3339
I3763
sS'polled'
p3340
I4462
sS'settlements'
p3341
I1980
sS'competitive'
p3342
I4463
sS'Virginia'
p3343
I3151
sS'distracting'
p3344
I3257
sS'adjustable'
p3345
I2733
sS'tennis'
p3346
I2655
sS'questions'
p3347
I4464
sS'world'
p3348
I520
sS'retired'
p3349
I1505
sS'alternative'
p3350
I3258
sS'conservative'
p3351
I1715
sS'timber'
p3352
I3259
sS'discipline'
p3353
I2478
sS'cut'
p3354
I3261
sS'helping'
p3355
I4515
sS'$'
p3356
I1982
sS'advanced'
p3357
I3855
sS'over-the-counter'
p3358
I1983
sS'informal'
p3359
I1984
sS'advisers'
p3360
I4466
sS'workers'
p3361
I4467
sS'danger'
p3362
I2101
sS'guaranteed'
p3363
I1985
sS'attractive'
p3364
I4737
sS'exclusively'
p3365
I4468
sS'soybeans'
p3366
I4469
sS'uncertainty'
p3367
I2562
sS'internal'
p3368
I690
sS'Christopher'
p3369
I3264
sS'homeland'
p3370
I792
sS'Berkeley'
p3371
I1987
sS'Brands'
p3372
I793
sS'Germany'
p3373
I4346
sS'ruled'
p3374
I1704
sS'administrative'
p3375
I3265
sS'merely'
p3376
I2735
sS'surprised'
p3377
I794
sS'chairman'
p3378
I1991
sS'...'
p3379
I1992
sS'complaint'
p3380
I1443
sS'bills'
p3381
I4603
sS'Last'
p3382
I2596
sS'They'
p3383
I139
sS'emergency'
p3384
I798
sS'demands'
p3385
I799
sS'evaluate'
p3386
I1993
sS'rebound'
p3387
I212
sS'Bickwit'
p3388
I3268
sS'Commons'
p3389
I3269
sS'Suisse'
p3390
I1995
sS'Air'
p3391
I4471
sS'matters'
p3392
I3270
sS'game'
p3393
I1996
sS'clout'
p3394
I2103
sS'foreigners'
p3395
I3271
sS'Campaneris'
p3396
I3272
sS'bit'
p3397
I3273
sS'Or'
p3398
I804
sS'projects'
p3399
I805
sS'formal'
p3400
I806
sS'stimulators'
p3401
I1997
sS'summit'
p3402
I678
sS'anthers'
p3403
I807
sS'Undersecretary'
p3404
I98
sS'follows'
p3405
I3275
sS'message'
p3406
I4473
sS'separately'
p3407
I2638
sS'communications'
p3408
I809
sS'regular'
p3409
I2526
sS'individuals'
p3410
I810
sS'indication'
p3411
I3277
sS'400,000'
p3412
I1300
sS'popular'
p3413
I1999
sS'boxy'
p3414
I920
sS'maquiladoras'
p3415
I3278
sS'contributions'
p3416
I4527
sS'healthy'
p3417
I3963
sS'paralyzed'
p3418
I4474
sS'circles'
p3419
I1298
sS'new-model'
p3420
I4475
sS'often'
p3421
I3280
sS'Gulf'
p3422
I3281
sS'spring'
p3423
I815
sS'creation'
p3424
I2001
sS'some'
p3425
I2002
sS'grass-roots'
p3426
I3282
sS'3.6'
p3427
I4476
sS'3.7'
p3428
I2668
sS'3.5'
p3429
I4477
sS'prohibited'
p3430
I2337
sS'pricing'
p3431
I3283
sS'3.1'
p3432
I2674
sS"'ve"
p3433
I2944
sS'fanfare'
p3434
I2004
sS'3.8'
p3435
I4478
sS'leaders'
p3436
I3648
sS'abandon'
p3437
I3051
sS'scale'
p3438
I3284
sS'Seoul'
p3439
I3285
sS'Pittsburgh'
p3440
I2006
sS'Frank'
p3441
I816
sS'decision'
p3442
I3286
sS'though'
p3443
I3766
sS'audience'
p3444
I2946
sS'per'
p3445
I3287
sS'modest'
p3446
I402
sS'Fund'
p3447
I4479
sS'bankruptcy-law'
p3448
I4480
sS'Massachusetts'
p3449
I2008
sS'London'
p3450
I2947
sS'Yesterday'
p3451
I1142
sS'payments'
p3452
I2324
sS'Pact'
p3453
I818
sS'be'
p3454
I819
sS'claimed'
p3455
I3535
sS'run'
p3456
I2718
sS'300'
p3457
I3289
sS'first-time'
p3458
I2011
sS'Its'
p3459
I3775
sS'continuing'
p3460
I3290
sS'agreement'
p3461
I822
sS'David'
p3462
I3291
sS'aloft'
p3463
I4483
sS'step'
p3464
I2012
sS'Indianapolis'
p3465
I3293
sS'Moreover'
p3466
I3294
sS'major'
p3467
I672
sS'abroad'
p3468
I2015
sS'August'
p3469
I337
sS'pipeline'
p3470
I4484
sS'goods'
p3471
I3295
sS'francs'
p3472
I2740
sS'zip'
p3473
I923
sS'anything'
p3474
I825
sS'cigarette'
p3475
I2016
sS'exaggerated'
p3476
I826
sS'Pont'
p3477
I827
sS'&'
p3478
I4560
sS'Savings'
p3479
I3161
sS'remains'
p3480
I2104
sS'range'
p3481
I4487
sS'ounce'
p3482
I3296
sS'Committee'
p3483
I2017
sS'positive'
p3484
I2018
sS'Before'
p3485
I1711
sS'farmers'
p3486
I4093
sS'block'
p3487
I2019
sS'72'
p3488
I4356
sS'seeing'
p3489
I2020
sS'Stark'
p3490
I4027
sS'Eli'
p3491
I2021
sS'plenty'
p3492
I3298
sS'Stoltzman'
p3493
I376
sS'precisely'
p3494
I2186
sS'abusive'
p3495
I3299
sS'within'
p3496
I2022
sS'retailer'
p3497
I3300
sS'steady'
p3498
I276
sS'150-member'
p3499
I831
sS'Everything'
p3500
I4488
sS'because'
p3501
I4746
sS'primarily'
p3502
I832
sS'repaid'
p3503
I833
sS'sports'
p3504
I3973
sS'Ozal'
p3505
I2555
sS'bankruptcy'
p3506
I3301
sS'canal'
p3507
I4490
sS'Composite'
p3508
I2025
sS'treated'
p3509
I3145
sS'costly'
p3510
I1963
sS'question'
p3511
I4491
sS'handles'
p3512
I3974
sS'long'
p3513
I4492
sS'ordered'
p3514
I2038
sS'Georgia-Pacific'
p3515
I4493
sS'crackdown'
p3516
I836
sS'Unification'
p3517
I3303
sS'79'
p3518
I2026
sS'suit'
p3519
I837
sS'Mips'
p3520
I3304
sS'grew'
p3521
I1919
sS'Ross'
p3522
I4226
sS'scared'
p3523
I4494
sS'files'
p3524
I4495
sS'considerably'
p3525
I839
sS'plunge'
p3526
I4496
sS'elsewhere'
p3527
I840
sS'investigations'
p3528
I3914
sS'asset-backed'
p3529
I2932
sS'great'
p3530
I906
sS'adjusting'
p3531
I3306
sS'vehicle'
p3532
I2107
sS'Attorney'
p3533
I2529
sS'goods-producing'
p3534
I4497
sS'Ms.'
p3535
I4498
sS'deductions'
p3536
I842
sS'two-part'
p3537
I3308
sS'repeatedly'
p3538
I4499
sS'Ltd.'
p3539
I4500
sS'filed'
p3540
I4501
sS'hopes'
p3541
I3309
sS'subsidiary'
p3542
I3310
sS'line'
p3543
I843
sS'Austin'
p3544
I4502
sS'raising'
p3545
I4503
sS'posted'
p3546
I844
sS'GDP'
p3547
I845
sS'Beijing'
p3548
I3311
sS'rejection'
p3549
I3312
sS'refinancing'
p3550
I846
sS'Office'
p3551
I847
sS'Tuesday'
p3552
I2591
sS'Alvin'
p3553
I3313
sS'Loan'
p3554
I4504
sS'goodwill'
p3555
I3166
sS'Africa'
p3556
I849
sS'up'
p3557
I850
sS'us'
p3558
I851
sS'Thatcher'
p3559
I2878
sS'amendment'
p3560
I1096
sS'maturity'
p3561
I852
sS"'re"
p3562
I3314
sS'exploration'
p3563
I3315
sS'today'
p3564
I3976
sS'planes'
p3565
I3316
sS'jumbo'
p3566
I3317
sS'ago'
p3567
I866
sS'Florence'
p3568
I2888
sS'medical'
p3569
I2530
sS'yelled'
p3570
I855
sS'OTC'
p3571
I4507
sS'associated'
p3572
I4508
sS'adults'
p3573
I2039
sS'furor'
p3574
I3901
sS'Perhaps'
p3575
I3319
sS'stripped'
p3576
I3320
sS'start-up'
p3577
I857
sS'Dr.'
p3578
I2953
sS'muscles'
p3579
I3136
sS'Eventually'
p3580
I2400
sS'To'
p3581
I2040
sS'single'
p3582
I2301
sS'associates'
p3583
I4509
sS'Twins'
p3584
I859
sS'RATES'
p3585
I3892
sS'International'
p3586
I4186
sS'rally'
p3587
I4510
sS'Voices'
p3588
I3771
sS'Manhattan'
p3589
I860
sS'RC6280'
p3590
I3323
sS'%'
p3591
I3324
sS'May'
p3592
I3325
sS'employment'
p3593
I4751
sS'Venezuela'
p3594
I4063
sS'peace'
p3595
I4511
sS'A.'
p3596
I2045
sS'These'
p3597
I3978
sS'Mac'
p3598
I3326
sS'reputation'
p3599
I3772
sS'Mae'
p3600
I3327
sS'income'
p3601
I4512
sS'department'
p3602
I2048
sS'Man'
p3603
I3328
sS'responded'
p3604
I1311
sS'TNT'
p3605
I4513
sS'voters'
p3606
I1964
sS'elements'
p3607
I862
sS'Stearns'
p3608
I2351
sS'calculating'
p3609
I2959
sS'provided'
p3610
I4187
sS'testified'
p3611
I2117
sS're-election'
p3612
I2051
sS'after-tax'
p3613
I3773
sS'problems'
p3614
I4514
sS'prepared'
p3615
I3330
sS'regulations'
p3616
I4550
sS'generated'
p3617
I4516
sS'Sentra'
p3618
I2054
sS'Canonie'
p3619
I863
sS'allowing'
p3620
I4517
sS'hair'
p3621
I3573
sS'missile'
p3622
I2119
sS'sides'
p3623
I864
sS'mood'
p3624
I4188
sS'rallied'
p3625
I3332
sS'night'
p3626
I1408
sS'land'
p3627
I867
sS'methodologies'
p3628
I868
sS'Ad'
p3629
I2057
sS'vice'
p3630
I4518
sS'Zapfel'
p3631
I3333
sS'age'
p3632
I869
sS'vehicles'
p3633
I3334
sS'backed'
p3634
I3116
sS'bankers'
p3635
I3335
sS'departments'
p3636
I4519
sS'An'
p3637
I2060
sS'leftist'
p3638
I3833
sS'As'
p3639
I2061
sS'implied'
p3640
I1799
sS'Scott'
p3641
I3338
sS'Asian'
p3642
I3339
sS'Geiger'
p3643
I2063
sS'far'
p3644
I4251
sS'international'
p3645
I2723
sS'Soviets'
p3646
I2064
sS'Oakland'
p3647
I4521
sS'requires'
p3648
I2065
sS'having'
p3649
I872
sS'once'
p3650
I4522
sS'portraying'
p3651
I3341
sS'partial'
p3652
I873
sS'fixed-rate'
p3653
I2068
sS'unemployment'
p3654
I3844
sS'issued'
p3655
I4523
sS'resistance'
p3656
I4524
sS'tested'
p3657
I616
sS'However'
p3658
I4525
sS'Pell'
p3659
I2069
sS'advice'
p3660
I3068
sS'broader'
p3661
I876
sS'served'
p3662
I2950
sS'Department'
p3663
I3872
sS'attracted'
p3664
I4019
sS'adjustment'
p3665
I4526
sS'15,000'
p3666
I3342
sS'centers'
p3667
I878
sS'issues'
p3668
I4528
sS'rigidity'
p3669
I4529
sS'compact'
p3670
I2071
sS'demonstrators'
p3671
I1103
sS'McLaughlin'
p3672
I880
sS'Someone'
p3673
I3343
sS'Business'
p3674
I3344
sS'Means'
p3675
I3345
sS'similar'
p3676
I2037
sS'concerned'
p3677
I881
sS'young'
p3678
I882
sS'send'
p3679
I883
sS'appointed'
p3680
I2120
sS'intensive'
p3681
I3346
sS'Union'
p3682
I884
sS'does'
p3683
I1104
sS'UAL'
p3684
I4531
sS'Swanson'
p3685
I1678
sS'stable'
p3686
I4532
sS'quarterly'
p3687
I3347
sS'officials'
p3688
I2250
sS'include'
p3689
I4533
sS'friendly'
p3690
I2074
sS'indicating'
p3691
I2791
sS'Steel'
p3692
I3305
sS'probe'
p3693
I886
sS'Young'
p3694
I2075
sS'organizations'
p3695
I1517
sS'continues'
p3696
I887
sS'Mrs.'
p3697
I2077
sS'wave'
p3698
I2078
sS'putting'
p3699
I3349
sS'promise'
p3700
I4771
sS'Not'
p3701
I2072
sS'specific'
p3702
I3866
sS'drinking'
p3703
I4534
sS'continued'
p3704
I889
sS'minerals'
p3705
I890
sS'Markus'
p3706
I2116
sS'entire'
p3707
I3351
sS'Unificationist'
p3708
I3797
sS'litigation'
p3709
I4656
sS'sparked'
p3710
I665
sS'Wells'
p3711
I2369
sS'meant'
p3712
I2080
sS'positions'
p3713
I2081
sS'notes'
p3714
I4535
sS'fewer'
p3715
I891
sS'8.95'
p3716
I2082
sS'Defense'
p3717
I3352
sS'Morgan'
p3718
I2375
sS'car'
p3719
I1518
sS'Tomash'
p3720
I2648
sS'challenge'
p3721
I934
sS'hiding'
p3722
I1108
sS'Bankruptcy'
p3723
I893
sS'concluded'
p3724
I4537
sS'Index'
p3725
I2084
sS'averaged'
p3726
I2123
sS'Martin'
p3727
I1535
sS'350'
p3728
I1082
sS'Marks'
p3729
I2795
sS'13/16'
p3730
I1100
sS'Long'
p3731
I3354
sS'licensed'
p3732
I682
sS'Hutton'
p3733
I4539
sS'Equipment'
p3734
I2085
sS'State'
p3735
I4540
sS'picked'
p3736
I2086
sS'growing'
p3737
I2746
sS'nests'
p3738
I3355
sS'makers'
p3739
I4542
sS'index'
p3740
I895
sS'staffers'
p3741
I3357
sS'software'
p3742
I1113
sS'plays'
p3743
I2087
sS'underwriters'
p3744
I2962
sS'rate'
p3745
I4258
sS'giving'
p3746
I3358
sS'several'
p3747
I3832
sS'probably'
p3748
I1934
sS'fat'
p3749
I4253
sS'Alan'
p3750
I896
sS'practices'
p3751
I2612
sS'access'
p3752
I3359
sS'consistently'
p3753
I897
sS'waiting'
p3754
I4543
sS'clipboard'
p3755
I3360
sS'eating'
p3756
I2010
sS'capital'
p3757
I4544
sS'crossed'
p3758
I2125
sS';'
p3759
I2089
sS'America'
p3760
I2090
sS'Hong'
p3761
I3888
sS'exercise'
p3762
I3361
sS'thin'
p3763
I936
sS'body'
p3764
I3362
sS'Poor'
p3765
I3178
sS'ensure'
p3766
I3885
sS'led'
p3767
I903
sS'chose'
p3768
I4545
sS'stance'
p3769
I2092
sS'exchange'
p3770
I3363
sS'respectively'
p3771
I904
sS'pushing'
p3772
I4547
sS'commercial'
p3773
I2093
sS'amounts'
p3774
I2043
sS'jointly'
p3775
I3364
sS'resources'
p3776
I618
sS'its'
p3777
I645
sS'Green'
p3778
I2095
sS'making'
p3779
I2747
sS'issuing'
p3780
I2215
sS'Boyer'
p3781
I3366
sS'extreme'
p3782
I3367
sS'39'
p3783
I3368
sS'engage'
p3784
I907
sS'Mixte'
p3785
I1316
sS'Chinese'
p3786
I3369
sS'33'
p3787
I3370
sS'32'
p3788
I3371
sS'31'
p3789
I3372
sS'30'
p3790
I3373
sS'37'
p3791
I3374
sS'27.1'
p3792
I4756
sS'35'
p3793
I3375
sS'leaving'
p3794
I4548
sS'engine'
p3795
I4127
sS'suggests'
p3796
I3244
sS'Vietnam'
p3797
I2966
sS'Sachs'
p3798
I1658
sS'insulin'
p3799
I912
sS'Motor'
p3800
I4549
sS'Big'
p3801
I3780
sS'opinion'
p3802
I913
sS'residents'
p3803
I914
sS'gene'
p3804
I2100
sS'makes'
p3805
I915
sS'maker'
p3806
I916
sS'involves'
p3807
I917
sS'Economic'
p3808
I3252
sS'named'
p3809
I3377
sS'debts'
p3810
I2540
sS'Brothers'
p3811
I4758
sS'deputy'
p3812
I3263
sS'win'
p3813
I2102
sS'Robert'
p3814
I4552
sS'7.55'
p3815
I919
sS'baskets'
p3816
I3378
sS'41.60'
p3817
I4553
sS'decrease'
p3818
I3379
sS'privately'
p3819
I3380
sS'motor'
p3820
I4554
sS'Brazilian'
p3821
I3381
sS'Fla.'
p3822
I3121
sS'apply'
p3823
I4555
sS'complex'
p3824
I3830
sS'recapitalization'
p3825
I1269
sS'standing'
p3826
I921
sS'Trifari'
p3827
I2754
sS'use'
p3828
I4556
sS'fee'
p3829
I4557
sS'from'
p3830
I4558
sS'consumption'
p3831
I4559
sS'failed'
p3832
I708
sS'142.85'
p3833
I4561
sS'illegal'
p3834
I925
sS'Hun'
p3835
I4562
sS'live'
p3836
I1511
sS'flat'
p3837
I4274
sS'next'
p3838
I926
sS'few'
p3839
I4563
sS'examination'
p3840
I4564
sS'Fe'
p3841
I3383
sS'year-ago'
p3842
I3384
sS'timetable'
p3843
I4565
sS'themselves'
p3844
I3385
sS'panel'
p3845
I2109
sS'USX'
p3846
I3541
sS'historically'
p3847
I2110
sS'reflects'
p3848
I2111
sS'sort'
p3849
I4567
sS'bureaucracy'
p3850
I2112
sS'Lane'
p3851
I4568
sS'1/4'
p3852
I2113
sS'journalists'
p3853
I4569
sS'Mulford'
p3854
I929
sS'Appropriations'
p3855
I2114
sS'started'
p3856
I2115
sS'trait'
p3857
I3386
sS'inclined'
p3858
I4570
sS'equity'
p3859
I710
sS'benchmark'
p3860
I3329
sS'Wednesday'
p3861
I2118
sS'S&P'
p3862
I3387
sS'1/8'
p3863
I3331
sS'dealings'
p3864
I930
sS'S&L'
p3865
I3388
sS'guarantees'
p3866
I1989
sS'sharply'
p3867
I932
sS'8'
p3868
I3184
sS'filings'
p3869
I2091
sS'compromise'
p3870
I1276
sS'DeSoto'
p3871
I3783
sS'boards'
p3872
I3585
sS'majority'
p3873
I3152
sS'account'
p3874
I3389
sS'excellent'
p3875
I3681
sS'animals'
p3876
I888
sS'announcing'
p3877
I2121
sS'this'
p3878
I933
sS'ride'
p3879
I2122
sS'stations'
p3880
I3390
sS'stroke'
p3881
I4571
sS'recession'
p3882
I2124
sS'anywhere'
p3883
I2032
sS'obvious'
p3884
I3391
sS'publications'
p3885
I902
sS'uses'
p3886
I1975
sS'December'
p3887
I3586
sS'industrial'
p3888
I3392
sS'meet'
p3889
I2126
sS'closing'
p3890
I3393
sS'drops'
p3891
I2127
sS'Technology'
p3892
I2732
sS'F.'
p3893
I3394
sS'dropped'
p3894
I3986
sS'control'
p3895
I2128
sS'Prime'
p3896
I4572
sS'Israeli'
p3897
I2129
sS'120-day'
p3898
I4573
sS'Northern'
p3899
I4574
sS'do'
p3900
I1321
sS'process'
p3901
I937
sS'discussed'
p3902
I4195
sS'proportions'
p3903
I3395
sS'0.2'
p3904
I4575
sS'0.5'
p3905
I2312
sS'purposes'
p3906
I938
sS'pieces'
p3907
I939
sS'high'
p3908
I940
sS'effectively'
p3909
I3396
sS'Mr.'
p3910
I2130
sS'reserves'
p3911
I3397
sS'pulling'
p3912
I2131
sS'recognized'
p3913
I2340
sS'employs'
p3914
I3398
sS'sought'
p3915
I2133
sS'Party'
p3916
I4578
sS'voice'
p3917
I3663
sS'calculated'
p3918
I1305
sS'Laidig'
p3919
I4579
sS'stadiums'
p3920
I4299
sS'sit'
p3921
I4580
sS'protect'
p3922
I3802
sS'six'
p3923
I4581
sS'information'
p3924
I3992
sS'arrangement'
p3925
I2136
sS'regions'
p3926
I3401
sS'responsibilities'
p3927
I3402
sS'Paper'
p3928
I2970
sS'animal'
p3929
I944
sS'instead'
p3930
I4584
sS'Walter'
p3931
I1527
sS'panic'
p3932
I4585
sS'butterfat'
p3933
I3983
sS'airline'
p3934
I2971
sS'watch'
p3935
I3784
sS'Nissan'
p3936
I3405
sS'testimony'
p3937
I1726
sS'Red'
p3938
I4347
sS'3'
p3939
I457
sS'Domenici'
p3940
I1823
sS'maturities'
p3941
I3399
sS'Terms'
p3942
I4588
sS'engineering'
p3943
I493
sS'eyes'
p3944
I2812
sS'owns'
p3945
I2286
sS'physical'
p3946
I4141
sS'balloonists'
p3947
I1070
sS'light'
p3948
I4589
sS'drafting'
p3949
I1361
sS'counter'
p3950
I947
sS'lines'
p3951
I3407
sS'Community'
p3952
I948
sS'One'
p3953
I949
sS'Oct.'
p3954
I950
sS'chief'
p3955
I3408
sS'Tennessee'
p3956
I3409
sS'allow'
p3957
I951
sS'Gramm-Rudman'
p3958
I4376
sS'looking'
p3959
I6
sS'divided'
p3960
I361
sS'3/4'
p3961
I1920
sS'Schramm'
p3962
I953
sS'holds'
p3963
I3400
sS'soggy'
p3964
I2144
sS'theft'
p3965
I3190
sS'producer'
p3966
I954
sS'institutional'
p3967
I3410
sS'manufactured'
p3968
I2963
sS'taxpayer'
p3969
I1830
sS'Smith'
p3970
I2145
sS'produced'
p3971
I957
sS'growers'
p3972
I4541
sS'own'
p3973
I4768
sS'including'
p3974
I2147
sS'directs'
p3975
I958
sS'135'
p3976
I3495
sS'during'
p3977
I1922
sS'permission'
p3978
I3187
sS'protests'
p3979
I1728
sS'year-earlier'
p3980
I960
sS'badges'
p3981
I4590
sS'industries'
p3982
I3412
sS'delay'
p3983
I943
sS'negotiated'
p3984
I3413
sS'soft-drink'
p3985
I1923
sS'Exchange'
p3986
I2151
sS'Saatchi'
p3987
I2152
sS'ships'
p3988
I4591
sS'labor'
p3989
I3414
sS'meantime'
p3990
I961
sS'newsprint'
p3991
I3877
sS'willing'
p3992
I3415
sS'stalled'
p3993
I962
sS'covered'
p3994
I4593
sS'holiday'
p3995
I4594
sS'More'
p3996
I4315
sS'pending'
p3997
I4595
sS'crash'
p3998
I4596
sS'greater'
p3999
I3417
sS'auto'
p4000
I2154
sS'practice'
p4001
I3544
sS'earn'
p4002
I2549
sS'Herbert'
p4003
I964
sS'cutting'
p4004
I3418
sS'courtroom'
p4005
I3419
sS'hands'
p4006
I2155
sS'front'
p4007
I2156
sS'Sony'
p4008
I728
sS'assets'
p4009
I3004
sS'investor'
p4010
I4599
sS'fled'
p4011
I4600
sS'capital-gains'
p4012
I3422
sS'Tator'
p4013
I715
sS'Guber-Peters'
p4014
I2157
sS'Supreme'
p4015
I2158
sS'fees'
p4016
I4327
sS'San'
p4017
I966
sS'Sam'
p4018
I967
sS'spinal'
p4019
I4199
sS'Roger'
p4020
I3923
sS'warned'
p4021
I3423
sS'countries'
p4022
I3789
sS'World'
p4023
I2282
sS'identified'
p4024
I3424
sS'Israel'
p4025
I1674
sS'merge'
p4026
I968
sS'Yetnikoff'
p4027
I969
sS"O'Kicki"
p4028
I2161
sS'fields'
p4029
I2551
sS'references'
p4030
I2975
sS'Fed'
p4031
I3426
sS'stock'
p4032
I3404
sS'eases'
p4033
I4604
sS'E.'
p4034
I3108
sS'dismissing'
p4035
I4583
sS'Statistics'
p4036
I2162
sS'From'
p4037
I1115
sS'Network'
p4038
I1117
sS'doing'
p4039
I973
sS'Mediterranean'
p4040
I3790
sS'Balloon'
p4041
I3427
sS'lawful'
p4042
I4605
sS'700'
p4043
I2163
sS'related'
p4044
I4606
sS'society'
p4045
I974
sS'designer'
p4046
I2165
sS'variety'
p4047
I2166
sS'Treasury'
p4048
I976
sS'dollar-denominated'
p4049
I3715
sS'our'
p4050
I4608
sS'80'
p4051
I4609
sS'salesman'
p4052
I3428
sS'IFI'
p4053
I2169
sS'special'
p4054
I2170
sS'85'
p4055
I4610
sS'giant'
p4056
I3179
sS"'"
p4057
I977
sS'entertainment'
p4058
I2171
sS'Corp.'
p4059
I1146
sS'dismissal'
p4060
I978
sS'bad'
p4061
I2553
sS'Genentech'
p4062
I1163
sS'strokes'
p4063
I1360
sS'rise'
p4064
I3642
sS'China'
p4065
I3430
sS'negotiable'
p4066
I1116
sS'charge'
p4067
I3935
sS'electronics'
p4068
I3431
sS'intervention'
p4069
I1732
sS'supports'
p4070
I4611
sS'red'
p4071
I3432
sS'thrifts'
p4072
I4612
sS'disclose'
p4073
I4613
sS'shut'
p4074
I979
sS'Kakita'
p4075
I3433
sS'Meek'
p4076
I980
sS'This'
p4077
I4614
sS'Judicial'
p4078
I3434
sS'troops'
p4079
I2738
sS'Fresca'
p4080
I3966
sS'Rubendall'
p4081
I4616
sS'ban'
p4082
I2554
sS'completely'
p4083
I2175
sS'2.50'
p4084
I4774
sS'tied'
p4085
I945
sS'latest'
p4086
I1910
sS'early'
p4087
I1699
sS'Senator'
p4088
I3435
sS'reporters'
p4089
I714
sS'business'
p4090
I1720
sS'additional'
p4091
I2347
sS'Directorate'
p4092
I3436
sS'allies'
p4093
I3437
sS'Nabisco'
p4094
I4201
sS'afternoon'
p4095
I2646
sS'dubbed'
p4096
I983
sS'Nikkei'
p4097
I3438
sS'recipes'
p4098
I3439
sS'area'
p4099
I1733
sS'diminished'
p4100
I2179
sS'Lawson'
p4101
I3994
sS'times'
p4102
I3689
sS'counterpart'
p4103
I2181
sS'riding'
p4104
I1032
sS'length'
p4105
I986
sS'pigs'
p4106
I987
sS'retain'
p4107
I3440
sS'secretary'
p4108
I1331
sS'stimulate'
p4109
I988
sS'destruction'
p4110
I2302
sS'degree'
p4111
I4546
sS'plastics'
p4112
I1230
sS'succeeds'
p4113
I2182
sS'third'
p4114
I2451
sS'Review'
p4115
I989
sS'2,000'
p4116
I3442
sS'Administration'
p4117
I3443
sS'unsupported'
p4118
I2184
sS'alleged'
p4119
I4204
sS'improving'
p4120
I2185
sS'galvanized'
p4121
I4617
sS'submit'
p4122
I156
sS'lagging'
p4123
I3446
sS'ties'
p4124
I946
sS'owner'
p4125
I991
sS'Sventek'
p4126
I3447
sS'1989'
p4127
I4184
sS'quality'
p4128
I2187
sS'owning'
p4129
I3448
sS'Ries'
p4130
I993
sS'ballot'
p4131
I1098
sS'vetoed'
p4132
I994
sS'management'
p4133
I2188
sS'North'
p4134
I4618
sS'Cohen'
p4135
I3276
sS'Citicorp'
p4136
I1734
sS'bears'
p4137
I2189
sS'constitution'
p4138
I4361
sS'achieved'
p4139
I4382
sS'system'
p4140
I997
sS'adopted'
p4141
I3739
sS'Coast'
p4142
I3449
sS'priority'
p4143
I4620
sS'their'
p4144
I4621
sS'attack'
p4145
I2192
sS'Coates'
p4146
I4622
sS'slide'
p4147
I2160
sS'ton'
p4148
I3743
sS'perfectly'
p4149
I2193
sS'emphasized'
p4150
I2298
sS'final'
p4151
I3754
sS'Association'
p4152
I3450
sS'back'
p4153
I268
sS'enforcement'
p4154
I998
sS'Lincoln'
p4155
I3451
sS'lot'
p4156
I1736
sS'big'
p4157
I3266
sS'shelf'
p4158
I4623
sS'doomed'
p4159
I4624
sS'exactly'
p4160
I2194
sS'Sider'
p4161
I3157
sS'anti-apartheid'
p4162
I3655
sS'environmental'
p4163
I3454
sS'chemicals'
p4164
I2195
sS'reflecting'
p4165
I4626
sS'manipulation'
p4166
I2196
sS'branches'
p4167
I3997
sS'overwhelming'
p4168
I2197
sS'discretionary'
p4169
I1318
sS'steel'
p4170
I1001
sS'loved'
p4171
I3456
sS'colleagues'
p4172
I1002
sS'hearings'
p4173
I4628
sS'bid'
p4174
I3267
sS'Metropolitan'
p4175
I1538
sS'minister'
p4176
I4131
sS'culture'
p4177
I1929
sS'Mass'
p4178
I4276
sS'submitted'
p4179
I2199
sS'claim'
p4180
I2200
sS'compensation'
p4181
I3457
sS'individual'
p4182
I3201
sS'11/16'
p4183
I1085
sS'bind'
p4184
I3406
sS'visited'
p4185
I3458
sS'Peter'
p4186
I4630
sS'steep'
p4187
I1351
sS'Imperial'
p4188
I3532
sS'creditors'
p4189
I3806
sS'result'
p4190
I170
sS'1.4'
p4191
I4631
sS'imaginative'
p4192
I3459
sS'1.6'
p4193
I4633
sS'1.7'
p4194
I4634
sS'1.1'
p4195
I4635
sS'1.2'
p4196
I4636
sS'1.3'
p4197
I4637
sS'unchanged'
p4198
I2205
sS'partnership'
p4199
I1007
sS'1.8'
p4200
I4638
sS'seaborne'
p4201
I1008
sS'comfortable'
p4202
I3460
sS'corrupt'
p4203
I3793
sS'Other'
p4204
I2207
sS'Others'
p4205
I2542
sS'unlikely'
p4206
I3461
sS'38.5'
p4207
I1372
sS'Metromedia'
p4208
I4639
sS'close'
p4209
I1930
sS'turn'
p4210
I4023
sS'border'
p4211
I2209
sS'linked'
p4212
I4640
sS'viewed'
p4213
I1010
sS'Pao'
p4214
I3464
sS'Development'
p4215
I2210
sS'instrumentation'
p4216
I2211
sS'Oil'
p4217
I3465
sS'22.8'
p4218
I4757
sS'brokers'
p4219
I4420
sS'Goldman'
p4220
I3466
sS'After'
p4221
I4641
sS'able'
p4222
I3845
sS'Thanksgiving'
p4223
I3188
sS'arm'
p4224
I4387
sS'instance'
p4225
I2214
sS'concerns'
p4226
I3467
sS'declined'
p4227
I4388
sS'which'
p4228
I4642
sS'equaling'
p4229
I1012
sS'truck'
p4230
I2217
sS'2.4'
p4231
I4389
sS'Pierce'
p4232
I1013
sS'beyond'
p4233
I1853
sS'agenda'
p4234
I2141
sS'combat'
p4235
I4643
sS'collaboration'
p4236
I4644
sS'who'
p4237
I4645
sS'accountants'
p4238
I4646
sS'useful'
p4239
I2734
sS'eight'
p4240
I3471
sS'but'
p4241
I3608
sS'preliminary'
p4242
I3472
sS'sedan'
p4243
I3473
sS'Treaty'
p4244
I2980
sS'expired'
p4245
I3893
sS'payment'
p4246
I3474
sS'Pa.'
p4247
I3475
sS'Reserve'
p4248
I1016
sS'so-called'
p4249
I1017
sS'Microsoft'
p4250
I2338
sS'consequences'
p4251
I2220
sS'bargaining'
p4252
I835
sS'sweeping'
p4253
I1689
sS'nobody'
p4254
I3453
sS'Ultimately'
p4255
I2306
sS'Some'
p4256
I1446
sS'MCA'
p4257
I1020
sS'counted'
p4258
I952
sS'looked'
p4259
I3909
sS'N.V.'
p4260
I4181
sS'proceedings'
p4261
I3912
sS'construction'
p4262
I1126
sS'mechanical'
p4263
I2908
sS'normally'
p4264
I3479
sS'Saturday'
p4265
I3480
sS'fact'
p4266
I1022
sS'goals'
p4267
I4649
sS'impression'
p4268
I2224
sS'emerging'
p4269
I2225
sS'Blair'
p4270
I1932
sS'chances'
p4271
I4650
sS'agreed'
p4272
I4651
sS'sent'
p4273
I885
sS'Chemical'
p4274
I4652
sS'destroy'
p4275
I436
sS'Al'
p4276
I2059
sS'Under'
p4277
I1025
sS'portfolio'
p4278
I3482
sS'fear'
p4279
I4653
sS'feat'
p4280
I4654
sS'610'
p4281
I612
sS'decade'
p4282
I1027
sS'staff'
p4283
I3483
sS'answer'
p4284
I2442
sS'bottling'
p4285
I4657
sS'promote'
p4286
I4208
sS'grabbed'
p4287
I3484
sS'earned'
p4288
I2229
sS'holder'
p4289
I4050
sS'('
p4290
I2230
sS'specified'
p4291
I3321
sS'fans'
p4292
I3205
sS'controls'
p4293
I3485
sS'should'
p4294
I1030
sS'terminal'
p4295
I1509
sS'loafers'
p4296
I3486
sS'bases'
p4297
I2231
sS'candidates'
p4298
I4658
sS'York'
p4299
I3487
sS'employee'
p4300
I2232
sS'employed'
p4301
I2233
sS'he'
p4302
I2356
sS'local'
p4303
I4659
sS'secretaries'
p4304
I1033
sS'nonunion'
p4305
I4660
sS'Coke'
p4306
I2749
sS'regularly'
p4307
I3488
sS'move'
p4308
I955
sS'means'
p4309
I2108
sS'beat'
p4310
I3489
sS'Appleyard'
p4311
I3490
sS'overall'
p4312
I2234
sS'prohibition'
p4313
I1037
sS'120'
p4314
I2235
sS'joint'
p4315
I2236
sS'122'
p4316
I2237
sS'made'
p4317
I4783
sS'Newport'
p4318
I2238
sS'125'
p4319
I3998
sS'joins'
p4320
I3999
sS'deputies'
p4321
I2029
sS'timing'
p4322
I3491
sS'tactics'
p4323
I4784
sS'THE'
p4324
I4664
sS'argues'
p4325
I2766
sS'procedures'
p4326
I2242
sS'Once'
p4327
I1038
sS'following'
p4328
I2094
sS'processes'
p4329
I2244
sS'amid'
p4330
I3700
sS'committees'
p4331
I1554
sS'initial'
p4332
I1588
sS'trucks'
p4333
I4297
sS'course'
p4334
I373
sS'Sullivan'
p4335
I4666
sS'approach'
p4336
I3493
sS'areas'
p4337
I3492
sS'names'
p4338
I812
sS'taxes'
p4339
I1040
sS'teams'
p4340
I3494
sS'street-corner'
p4341
I4210
sS'stuff'
p4342
I1042
sS'Both'
p4343
I795
sS'Jones'
p4344
I813
sS'insist'
p4345
I4114
sS'wholesale'
p4346
I4211
sS'taxed'
p4347
I1044
sS'fixed'
p4348
I1582
sS'view'
p4349
I4667
sS'Burnham'
p4350
I4668
sS'adverse'
p4351
I4714
sS'temporarily'
p4352
I1045
sS'accepted'
p4353
I4178
sS'acquired'
p4354
I4669
sS'national'
p4355
I3496
sS'8.63'
p4356
I3940
sS'manufacture'
p4357
I2028
sS'Traders'
p4358
I3497
sS'mentioned'
p4359
I2150
sS'RATE'
p4360
I3498
sS'computer'
p4361
I4057
sS'usefulness'
p4362
I2251
sS'enhanced'
p4363
I3499
sS'agricultural'
p4364
I3411
sS'operated'
p4365
I2253
sS'audits'
p4366
I3500
sS'Marunouchi'
p4367
I2254
sS'expects'
p4368
I3706
sS'White'
p4369
I4001
sS'puts'
p4370
I2569
sS'Wisconsin'
p4371
I2255
sS'attempting'
p4372
I3501
sS'apparently'
p4373
I3463
sS'2.25'
p4374
I2083
sS'Britain'
p4375
I4670
sS'brunt'
p4376
I3502
sS'forest-products'
p4377
I3503
sS'discounts'
p4378
I3504
sS'state'
p4379
I4080
sS':'
p4380
I838
sS'closed'
p4381
I4671
sS'routine'
p4382
I3506
sS'tens'
p4383
I2257
sS'nuclear'
p4384
I1052
sS'July'
p4385
I3508
sS'Republican'
p4386
I1054
sS'frustrated'
p4387
I4672
sS'sold'
p4388
I4397
sS'speed'
p4389
I1691
sS'bought'
p4390
I4673
sS'comparable'
p4391
I2260
sS'attention'
p4392
I4398
sS'Sen.'
p4393
I2262
sS'ability'
p4394
I4674
sS'opening'
p4395
I4675
sS'importance'
p4396
I2263
sS'single-A-2'
p4397
I1057
sS'court'
p4398
I1536
sS'Hartt'
p4399
I1059
sS'agencies'
p4400
I4676
sS'interfere'
p4401
I2264
sS'efficiency'
p4402
I2265
sS'job'
p4403
I4677
sS'takeover'
p4404
I4678
sS'acquisitions'
p4405
I635
sS'key'
p4406
I2266
sS'calling'
p4407
I1566
sS'less'
p4408
I1084
sS'approval'
p4409
I2268
sS'lawsuit'
p4410
I1661
sS'problem'
p4411
I1133
sS'declining'
p4412
I4679
sS'thumb'
p4413
I375
sS'association'
p4414
I3094
sS'hits'
p4415
I2270
sS'figured'
p4416
I1062
sS'defense'
p4417
I4384
sS'limits'
p4418
I2271
sS'always'
p4419
I651
sS'career'
p4420
I2272
sS'minutes'
p4421
I3612
sS'taking'
p4422
I3511
sS'equal'
p4423
I3512
sS'minds'
p4424
I2273
sS'pulp'
p4425
I2421
sS'liquidating'
p4426
I3514
sS'succeed'
p4427
I4400
sS'grain'
p4428
I4680
sS'heart'
p4429
I4551
sS'scuttle'
p4430
I3208
sS'Diego'
p4431
I3808
sS'adjusted'
p4432
I1065
sS'reacting'
p4433
I1547
sS'opposition'
p4434
I4401
sS'Her'
p4435
I1066
sS'124,875'
p4436
I3516
sS'ca'
p4437
I1067
sS'resulting'
p4438
I911
sS'wonder'
p4439
I2879
sS'CIA'
p4440
I1134
sS'packaging'
p4441
I4682
sS'Los'
p4442
I2276
sS'Finally'
p4443
I4683
sS'maximize'
p4444
I2277
sS'service-industry'
p4445
I1533
sS'clash'
p4446
I3873
sS'table'
p4447
I4684
sS'Keeping'
p4448
I4046
sS'Temple'
p4449
I3517
sS'Interest'
p4450
I4260
sS'600'
p4451
I1743
sS'8.1'
p4452
I1069
sS'pound'
p4453
I766
sS'Rewards'
p4454
I3518
sS'Muramatsu'
p4455
I3519
sS'remarkable'
p4456
I3924
sS'exposure'
p4457
I1153
sS'addition'
p4458
I2278
sS'commodities'
p4459
I4686
sS'trademark'
p4460
I4687
sS'ended'
p4461
I1543
sS'expressed'
p4462
I703
sS'arbitrator'
p4463
I4688
sS'permanent'
p4464
I4592
sS'agreements'
p4465
I4689
sS'Colorado'
p4466
I163
sS'indicators'
p4467
I3520
sS'proposal'
p4468
I3521
sS'2001'
p4469
I3337
sS'Toronto'
p4470
I4212
sS'legislature'
p4471
I735
sS'Exxon'
p4472
I4691
sS'controlled'
p4473
I2279
sS'Center'
p4474
I3523
sS'powerful'
p4475
I2183
sS'Among'
p4476
I3801
sS'am'
p4477
I559
sS'sufficient'
p4478
I4692
sS'prospects'
p4479
I736
sS'scrutiny'
p4480
I4694
sS'Paragould'
p4481
I3525
sS'Benson'
p4482
I4690
sS'ensuring'
p4483
I4696
sS'deep'
p4484
I2987
sS'suspension'
p4485
I378
sS'smoking'
p4486
I2283
sS'general'
p4487
I2988
sS'Navigation'
p4488
I4699
sS'present'
p4489
I4700
sS'And'
p4490
I2284
sS'Sept.'
p4491
I1472
sS'bipartisan'
p4492
I2979
sS'Force'
p4493
I4701
sS'survey'
p4494
I774
sS'dictation'
p4495
I2132
sS'need'
p4496
I2208
sS'appropriations'
p4497
I4703
sS'appearance'
p4498
I3528
sS'examine'
p4499
I2989
sS'value'
p4500
I3529
sS'General'
p4501
I3530
sS'Gen-Probe'
p4502
I775
sS'Cincinnati'
p4503
I1998
sS'PLC'
p4504
I4705
sS'credit-card'
p4505
I3803
sS'Taiwan'
p4506
I4706
sS'immoral'
p4507
I2138
sS'at'
p4508
I564
sS'supply'
p4509
I4707
sS'group'
p4510
I2770
sS'examiner'
p4511
I2288
sS'almost'
p4512
I3531
sS'intangible'
p4513
I89
sS'thus'
p4514
I4709
sS'profitability'
p4515
I3656
sS'clearly'
p4516
I1009
sS'helped'
p4517
I3533
sS'Square'
p4518
I4485
sS'examined'
p4519
I2289
sS'audiences'
p4520
I4710
sS'watched'
p4521
I565
sS'chambers'
p4522
I4386
sS'partner'
p4523
I3536
sS'You'
p4524
I2291
sS'Beach'
p4525
I3537
sS'Medical'
p4526
I1074
sS'parent'
p4527
I2885
sS'per-share'
p4528
I1591
sS'beats'
p4529
I2365
sS'perhaps'
p4530
I4711
sS'began'
p4531
I4301
sS'Hunter'
p4532
I3539
sS'Bear'
p4533
I2293
sS'proceeds'
p4534
I2294
sS'member'
p4535
I4713
sS'England'
p4536
I2320
sS'when'
p4537
I3911
sS'Computer'
p4538
I3805
sS'largest'
p4539
I4715
sS'units'
p4540
I4716
sS'party'
p4541
I2296
sS'negotiate'
p4542
I4446
sS'gets'
p4543
I4717
sS'start'
p4544
I4566
sS'difficult'
p4545
I4718
sS'Real'
p4546
I566
sS'material'
p4547
I4597
sS'JCP'
p4548
I3545
sS'denominations'
p4549
I3238
sS'Third'
p4550
I4719
sS'4.4'
p4551
I4218
sS'Jenrette'
p4552
I2219
sS'reporting'
p4553
I3546
sS'disagree'
p4554
I4319
sS'effect'
p4555
I2297
sS'exceeds'
p4556
I1352
sS'Airport'
p4557
I3547
sS'feet'
p4558
I4326
sS'II'
p4559
I3548
sS'frequently'
p4560
I2299
sS'strategic'
p4561
I3445
sS'Mitchell'
p4562
I2300
sS'collar'
p4563
I4333
sS'expand'
p4564
I1078
sS'keep'
p4565
I2180
sS'III'
p4566
I3695
sS'Houston'
p4567
I4721
sS'peoples'
p4568
I4440
sS'transaction'
p4569
I2303
sS'off'
p4570
I1080
sS'center'
p4571
I3550
sS'fully'
p4572
I1081
sS'Senate'
p4573
I3551
sS'whole'
p4574
I4722
sS'49'
p4575
I3614
sS'well'
p4576
I2304
sS'agency'
p4577
I3842
sS'States'
p4578
I4723
sS'patterns'
p4579
I1898
sS'testify'
p4580
I1858
sS'1'
p4581
I3990
sS'corporation'
p4582
I3616
sS'position'
p4583
I1903
sS'decliners'
p4584
I4725
sS'muscle'
p4585
I1906
sS'Shearson'
p4586
I4726
sS'MacMillan'
p4587
I4727
sS'usual'
p4588
I3553
sS'routinely'
p4589
I4728
sS'Using'
p4590
I4006
sS'heavily'
p4591
I4729
sS'increasingly'
p4592
I2305
sS'4.9'
p4593
I4222
sS'half'
p4594
I1552
sS'domestic'
p4595
I3556
sS'keeping'
p4596
I617
sS'Hyundai'
p4597
I2995
sS'cheer'
p4598
I4456
sS'interim'
p4599
I1925
sS'books'
p4600
I975
sS'Chairman'
p4601
I2308
sS'insisting'
p4602
I3420
sS'joining'
p4603
I3169
sS'tough'
p4604
I3557
sS'rest'
p4605
I511
sS'Nicholas'
p4606
I4730
sS'Tower'
p4607
I4731
sS'mysterious'
p4608
I1438
sS'Volume'
p4609
I1144
sS'rapid'
p4610
I4732
sS'InfoCorp'
p4611
I4733
sS'ads'
p4612
I3558
sS'Far'
p4613
I4734
sS'residential'
p4614
I1086
sS'Company'
p4615
I1087
sS'drive'
p4616
I448
sS'regulatory'
p4617
I982
sS'deposits'
p4618
I2309
sS'bench'
p4619
I3560
sS'valuation'
p4620
I1128
sS'reasons'
p4621
I4409
sS'add'
p4622
I3561
sS'Credit'
p4623
I4695
sS'adoption'
p4624
I4736
sS'maintaining'
p4625
I2310
sS'gene-splicing'
p4626
I2589
sS'Despite'
p4627
I2311
sS'executive'
p4628
I3555
sS'5'
p4629
I4224
sS'tax'
p4630
I4576
sS'warrant'
p4631
I4424
sS'By'
p4632
I2314
sS'ought'
p4633
I3562
sS'resolved'
p4634
I3563
sS'tests'
p4635
I3564
sS'sick'
p4636
I4798
sS'provisions'
p4637
I4738
sS'government'
p4638
I1091
sS'admit'
p4639
I2274
sS'protesters'
p4640
I4739
sS'Drug'
p4641
I4450
sS'increases'
p4642
I1092
sS'Food'
p4643
I4455
sS'five'
p4644
I1978
sS'know'
p4645
I4740
sS'burden'
p4646
I2316
sS'press'
p4647
I4741
sS'immediately'
p4648
I2317
sS'oppression'
p4649
I1148
sS'Panhandle'
p4650
I4225
sS'prominent'
p4651
I2318
sS'loss'
p4652
I2319
sS'forcing'
p4653
I1750
sS'necessary'
p4654
I4472
sS'like'
p4655
I3566
sS'success'
p4656
I3567
sS'Pharmaceuticals'
p4657
I3809
sS'onerous'
p4658
I4219
sS'trillion'
p4659
I4033
sS'purchasing'
p4660
I3847
sS'appalling'
p4661
I3336
sS'extremely'
p4662
I3164
sS'admitted'
p4663
I3568
sS'loses'
p4664
I4742
sS'taxpayers'
p4665
I4743
sS'traders'
p4666
I4582
sS'clarinetist'
p4667
I4481
sS'have'
p4668
I3462
sS'lose'
p4669
I2325
sS'agents'
p4670
I744
sS'works'
p4671
I3569
sS'soft'
p4672
I3570
sS'LONDON'
p4673
I3534
sS'accessible'
p4674
I3571
sS'parity'
p4675
I4745
sS'indications'
p4676
I1097
sS'Bouygues'
p4677
I4489
sS'arbitrage'
p4678
I2327
sS'school'
p4679
I3645
sS'classical'
p4680
I575
sS'tumble'
p4681
I4747
sS'Sun'
p4682
I4748
sS'Section'
p4683
I4749
sS'authority'
p4684
I3572
sS'Mason'
p4685
I2329
sS'certain'
p4686
I558
sS'growth'
p4687
I4750
sS'Zayadi'
p4688
I3574
sS'recommendation'
p4689
I3575
sS'Jaguar'
p4690
I4228
sS'little'
p4691
I2809
sS'registrations'
p4692
I2159
sS'leery'
p4693
I2331
sS'recognition'
p4694
I1099
sS'Givens'
p4695
I3576
sS'trust'
p4696
I3810
sS'lead'
p4697
I4752
sS'Singapore'
p4698
I4753
sS'hot-air'
p4699
I2678
sS'broad'
p4700
I4520
sS'avoid'
p4701
I2066
sS'Sihanouk'
p4702
I1315
sS'Ifint'
p4703
I2332
sS'salaries'
p4704
I1102
sS'G-7'
p4705
I2044
sS'Shere'
p4706
I4754
sS'profitable'
p4707
I4465
sS'sustain'
p4708
I1764
sS'passion'
p4709
I1105
sS'assuming'
p4710
I3577
sS'filers'
p4711
I2334
sS'leader'
p4712
I4755
sS'?'
p4713
I2335
sS'desperate'
p4714
I2252
sS'demonstration'
p4715
I1379
sS'Kato'
p4716
I970
sS'expansion'
p4717
I2336
sS'outlets'
p4718
I1149
sS'pressure'
p4719
I1106
sS'host'
p4720
I3579
sS'expire'
p4721
I3580
sS'Times'
p4722
I2727
sS'although'
p4723
I3581
sS'accompanied'
p4724
I1107
sS'1.8340'
p4725
I3403
sS'loans'
p4726
I2105
sS'handling'
p4727
I757
sS'C.'
p4728
I2568
sS'gained'
p4729
I1109
sS'plastic'
p4730
I4035
sS'about'
p4731
I3583
sS'Wakeman'
p4732
I2783
sS'rare'
p4733
I4759
sS'carried'
p4734
I4760
sS'unwelcome'
p4735
I1747
sS'obligation'
p4736
I1580
sS'beef'
p4737
I3812
sS'shipping'
p4738
I4763
sS'surge'
p4739
I4764
sS'proposals'
p4740
I2712
sS'carries'
p4741
I4765
sS'carrier'
p4742
I4766
sS'Americans'
p4743
I4767
sS'bidders'
p4744
I1050
sS'Japan'
p4745
I3587
sS'introduced'
p4746
I3588
sS'subcompact'
p4747
I446
sS'stakes'
p4748
I2341
sS'alliance'
p4749
I2146
sS'letters'
p4750
I1114
sS'coverage'
p4751
I1753
sS'owe'
p4752
I4769
sS'Tass'
p4753
I4598
sS'warrants'
p4754
I4770
sS'nerves'
p4755
I4619
sS'Two'
p4756
I3591
sS'billions'
p4757
I3592
sS'getting'
p4758
I4761
sS'included'
p4759
I4232
sS'Internal'
p4760
I2343
sS'police'
p4761
I546
sS'been'
p4762
I3815
sS'female'
p4763
I3593
sS'registration'
p4764
I4772
sS'lovely'
p4765
I2578
sS'quickly'
p4766
I3816
sS'initially'
p4767
I4396
sS'Nakamura'
p4768
I2344
sS'fired'
p4769
I1562
sS'1986'
p4770
I3595
sS'1987'
p4771
I2174
sS'1984'
p4772
I4110
sS'prudent'
p4773
I3001
sS'1982'
p4774
I3597
sS'1983'
p4775
I3598
sS'1980'
p4776
I3599
sS'1981'
p4777
I3600
sS'transfer'
p4778
I4775
sS'lagged'
p4779
I2349
sS'1988'
p4780
I3601
sS'awarded'
p4781
I3602
sS'lost'
p4782
I2322
sS'dropping'
p4783
I3226
sS'try'
p4784
I892
sS'frustration'
p4785
I1120
sS'biggest'
p4786
I3603
sS'California'
p4787
I1950
sS'breeding'
p4788
I4776
sS'9.7'
p4789
I1121
sS'pretax'
p4790
I1122
sS'jealously'
p4791
I2525
sS'function'
p4792
I1123
sS'Kleinwort'
p4793
I4359
sS'certificate'
p4794
I824
sS'triggered'
p4795
I4778
sS'aircraft'
p4796
I3207
sS'funds'
p4797
I4779
sS'brand'
p4798
I3606
sS'Edelson'
p4799
I2352
sS'Paperboard'
p4800
I3607
sS'Detroit'
p4801
I4780
sS'volume'
p4802
I4781
sS'expected'
p4803
I3819
sS'lowered'
p4804
I2222
sS'wealthier'
p4805
I3609
sS'Liberty'
p4806
I2164
sS'money-fund'
p4807
I3610
sS'larger'
p4808
I999
sS'squeeze'
p4809
I4782
sS'signal'
p4810
I789
sS'crop'
p4811
I681
sS'Conn.-based'
p4812
I571
sS'U.S.A.'
p4813
I2453
sS'Greenwich'
p4814
I918
sS'Gold'
p4815
I4785
sS'whether'
p4816
I4786
sS'meeting'
p4817
I4787
sS'wife'
p4818
I1130
sS'smooth'
p4819
I1131
sS'signed'
p4820
I2358
sS'record'
p4821
I4788
sS'below'
p4822
I4789
sS'89'
p4823
I4607
sS'limit'
p4824
I2359
sS'ruling'
p4825
I4790
sS'invest'
p4826
I4238
sS'200,000'
p4827
I4791
sS'distribution'
p4828
I2269
sS'piece'
p4829
I2360
sS'issue'
p4830
I1862
sS'Insurance'
p4831
I3613
sS'urging'
p4832
I4681
sS'Asked'
p4833
I1015
sS'marketplace'
p4834
I2362
sS'devise'
p4835
I2363
sS'reservations'
p4836
I2364
sS'measure'
p4837
I2167
sS'Chevy'
p4838
I3796
sS'Utility'
p4839
I3774
sS'slowing'
p4840
I1138
sS'Biosource'
p4841
I768
sS'guy'
p4842
I1485
sS'Gillette'
p4843
I4792
sS'Electronics'
p4844
I4793
sS'education'
p4845
I2366
sS'margins'
p4846
I2168
sS'Containers'
p4847
I1139
sS'Conn.'
p4848
I3821
sS'compared'
p4849
I1140
sS"'ll"
p4850
I4794
sS'contest'
p4851
I2367
sS'46'
p4852
I3615
sS'StatesWest'
p4853
I4724
sS'44'
p4854
I3617
sS'45'
p4855
I3618
sS'42'
p4856
I3619
sS'detail'
p4857
I3620
sS'40'
p4858
I3621
sS'lately'
p4859
I1143
sS'Fuji'
p4860
I4795
sS'commitments'
p4861
I4097
sS'book'
p4862
I4796
sS'Five'
p4863
I4797
sS'details'
p4864
I1145
sS'Besides'
p4865
I2370
sS'compete'
p4866
I1155
sS'out'
p4867
I3622
sS'scandal'
p4868
I3382
sS'reckless'
p4869
I1147
sS'7/16'
p4870
I4744
sS'Hees'
p4871
I2371
sS'February'
p4872
I2328
sS'kinds'
p4873
I4799
sS'Like'
p4874
I2372
sS'completes'
p4875
I3455
sS'shredded'
p4876
I4800
sS'class'
p4877
I4647
sS'ultimately'
p4878
I4015
sS'contends'
p4879
I4801
sS'March'
p4880
I4306
sS'April'
p4881
I3623
sS'chance'
p4882
I1150
sS'income-tax'
p4883
I4802
sS'UAW'
p4884
I4530
sS'Act'
p4885
I3624
sS'Weaver'
p4886
I4803
sS'gap'
p4887
I4804
sS'disclosure'
p4888
I2765
sS'4.25'
p4889
I4805
sS'South'
p4890
I1152
sS'Stewart'
p4891
I3625
sS'RTC'
p4892
I2787
sS'using'
p4893
I1701
sS'Ashurst'
p4894
I3626
sS'factors'
p4895
I4016
sS'earthquake'
p4896
I2728
sS'rule'
p4897
I1154
sS'original'
p4898
I3627
sS'portion'
p4899
I2378
sS'students'
p4900
I2998
sS'Cambodian'
p4901
I4806
sS'biotechnology'
p4902
I3628
sS'processors'
p4903
I1810
sS'defend'
p4904
I3429
sS'representative'
p4905
I754
ssS'labels_dict'
p4906
(dp4907
S'rroot'
p4908
I0
sS'cc'
p4909
I1
sS'number'
p4910
I2
sS'ccomp'
p4911
I3
sS'possessive'
p4912
I4
sS'prt'
p4913
I5
sS'num'
p4914
I6
sS'nsubjpass'
p4915
I7
sS'csubj'
p4916
I8
sS'conj'
p4917
I9
sS'amod'
p4918
I39
sS'nn'
p4919
I11
sS'neg'
p4920
I12
sS'discourse'
p4921
I13
sS'mark'
p4922
I14
sS'auxpass'
p4923
I15
sS'infmod'
p4924
I16
sS'mwe'
p4925
I17
sS'advcl'
p4926
I18
sS'aux'
p4927
I19
sS'prep'
p4928
I20
sS'parataxis'
p4929
I21
sS'nsubj'
p4930
I22
sS'<null>'
p4931
I23
sS'rcmod'
p4932
I24
sS'advmod'
p4933
I25
sS'punct'
p4934
I26
sS'quantmod'
p4935
I27
sS'tmod'
p4936
I28
sS'acomp'
p4937
I29
sS'pcomp'
p4938
I30
sS'poss'
p4939
I31
sS'npadvmod'
p4940
I32
sS'xcomp'
p4941
I33
sS'cop'
p4942
I34
sS'partmod'
p4943
I35
sS'dep'
p4944
I36
sS'appos'
p4945
I37
sS'det'
p4946
I38
sS'dobj'
p4947
I10
sS'pobj'
p4948
I40
sS'iobj'
p4949
I41
sS'expl'
p4950
I42
sS'predet'
p4951
I43
sS'preconj'
p4952
I44
sS'root'
p4953
I45
ssS'pos_dict'
p4954
(dp4955
S'PRP$'
p4956
I0
sS'VBG'
p4957
I1
sS'FW'
p4958
I17
sS'<root>'
p4959
I3
sS'VBN'
p4960
I4
sS'POS'
p4961
I18
sS"''"
p4962
I6
sS'VBP'
p4963
I7
sS'WDT'
p4964
I8
sS'JJ'
p4965
I9
sS'WP'
p4966
I10
sS'VBZ'
p4967
I11
sS'DT'
p4968
I12
sg3118
I13
sS'RP'
p4969
I14
sg3356
I15
sS'NN'
p4970
I16
sS'VBD'
p4971
I2
sg2322
I5
sg859
I19
sS'TO'
p4972
I20
sS'PRP'
p4973
I21
sS'RB'
p4974
I22
sS'-LRB-'
p4975
I23
sg4380
I24
sS'NNS'
p4976
I25
sS'NNP'
p4977
I26
sS'``'
p4978
I27
sS'WRB'
p4979
I28
sS'CC'
p4980
I29
sS'<null>'
p4981
I30
sS'PDT'
p4982
I31
sS'RBS'
p4983
I32
sS'RBR'
p4984
I33
sS'CD'
p4985
I34
sS'EX'
p4986
I35
sS'IN'
p4987
I36
sS'WP$'
p4988
I37
sS'MD'
p4989
I38
sS'NNPS'
p4990
I39
sS'-RRB-'
p4991
I40
sS'JJS'
p4992
I41
sS'JJR'
p4993
I42
sS'VB'
p4994
I43
sS'UH'
p4995
I44
ssb(inet_properties
NetProperties
p4996
(dp4997
S'label_embed_dim'
p4998
I32
sS'hidden_second_dim'
p4999
I400
sS'pos_embed_dim'
p5000
I32
sS'word_embed_dim'
p5001
I64
sS'hidden_first_dim'
p5002
I400
sS'minibatch_size'
p5003
I1000
sbtp5004
.